Certificate:
    Data:
        Version: 3 (0x2)
        Serial Number: 2 (0x2)
    Signature Algorithm: sha1WithRSAEncryption
        Issuer: C=US, ST=CA, L=SanFrancisco, O=Evil Inc, OU=changeme, CN=changeme/name=changeme/emailAddress=mail@host.domain
        Validity
            Not Before: Feb 24 17:54:59 2014 GMT
            Not After : Feb 22 17:54:59 2024 GMT
        Subject: C=US, ST=CA, L=SanFrancisco, O=Fort-Funston, OU=changeme, CN=client/name=changeme/emailAddress=mail@host.domain
        Subject Public Key Info:
            Public Key Algorithm: rsaEncryption
                Public-Key: (1024 bit)
                Modulus:
                    00:e8:e2:2c:b8:d4:db:89:50:4f:47:1e:68:db:f7:
                    e4:cc:47:41:63:75:03:37:50:7a:a8:4d:27:36:d5:
                    15:01:08:b6:cf:56:f7:56:6d:3d:f9:e2:8d:1a:5d:
                    bf:a0:24:5e:07:55:8e:d0:dc:f1:fa:19:87:1d:d6:
                    b6:58:82:2e:ba:69:6d:e9:d9:c8:16:0d:1d:59:7f:
                    f4:8e:58:10:01:3d:21:14:16:3c:ec:cd:8c:b7:0e:
                    e6:7b:77:b4:f9:90:a5:17:01:bb:84:c6:b2:12:87:
                    70:eb:9f:6d:4f:d0:68:8b:96:c0:e7:0b:51:b4:9d:
                    1d:7b:6c:7b:be:89:6b:88:8b
                Exponent: 65537 (0x10001)
        X509v3 extensions:
            X509v3 Basic Constraints: 
                CA:FALSE
            Netscape Comment: 
                Easy-RSA Generated Certificate
            X509v3 Subject Key Identifier: 
                9E:F8:49:D0:A2:76:30:5C:AB:2B:8A:B5:8D:C6:45:1F:A7:F8:CF:85
            X509v3 Authority Key Identifier: 
                keyid:DC:A5:F1:76:DB:4E:CD:8E:EF:B1:23:56:1D:92:80:99:74:3B:EA:6F
                DirName:/C=US/ST=CA/L=SanFrancisco/O=Evil Inc/OU=changeme/CN=changeme/name=changeme/emailAddress=mail@host.domain
                serial:E7:21:1E:18:41:1B:96:83

            X509v3 Extended Key Usage: 
                TLS Web Client Authentication
            X509v3 Key Usage: 
                Digital Signature
    Signature Algorithm: sha1WithRSAEncryption
         48:76:c0:18:fa:0a:ee:4e:1a:ec:02:9d:d4:83:ca:94:54:a1:
         3f:51:2f:3e:4b:95:c3:42:9b:71:a0:4b:d9:af:47:23:b9:1c:
         fb:85:ba:76:e2:09:cb:65:bb:d2:7d:44:3d:4b:67:ba:80:83:
         be:a8:ed:c4:b9:ea:1a:1b:c7:59:3b:d9:5c:0d:46:d8:c9:92:
         cb:10:c5:f2:1a:38:a4:aa:07:2c:e3:84:16:79:c7:95:09:e3:
         01:d2:15:a2:77:0b:8b:bf:94:04:e9:7f:c0:cd:e6:2e:64:cd:
         1e:a3:32:ec:11:cc:62:ce:c7:4e:cd:ad:48:5c:b1:b8:e9:76:
         b3:f9
-----BEGIN CERTIFICATE-----
MIIEDTCCA3agAwIBAgIBAjANBgkqhkiG9w0BAQUFADCBnjELMAkGA1UEBhMCVVMx
CzAJBgNVBAgTAkNBMRUwEwYDVQQHEwxTYW5GcmFuY2lzY28xETAPBgNVBAoTCEV2
aWwgSW5jMREwDwYDVQQLEwhjaGFuZ2VtZTERMA8GA1UEAxMIY2hhbmdlbWUxETAP
BgNVBCkTCGNoYW5nZW1lMR8wHQYJKoZIhvcNAQkBFhBtYWlsQGhvc3QuZG9tYWlu
MB4XDTE0MDIyNDE3NTQ1OVoXDTI0MDIyMjE3NTQ1OVowgaAxCzAJBgNVBAYTAlVT
MQswCQYDVQQIEwJDQTEVMBMGA1UEBxMMU2FuRnJhbmNpc2NvMRUwEwYDVQQKEwxG
b3J0LUZ1bnN0b24xETAPBgNVBAsTCGNoYW5nZW1lMQ8wDQYDVQQDEwZjbGllbnQx
ETAPBgNVBCkTCGNoYW5nZW1lMR8wHQYJKoZIhvcNAQkBFhBtYWlsQGhvc3QuZG9t
YWluMIGfMA0GCSqGSIb3DQEBAQUAA4GNADCBiQKBgQDo4iy41NuJUE9HHmjb9+TM
R0FjdQM3UHqoTSc21RUBCLbPVvdWbT354o0aXb+gJF4HVY7Q3PH6GYcd1rZYgi66
aW3p2cgWDR1Zf/SOWBABPSEUFjzszYy3DuZ7d7T5kKUXAbuExrISh3Drn21P0GiL
lsDnC1G0nR17bHu+iWuIiwIDAQABo4IBVTCCAVEwCQYDVR0TBAIwADAtBglghkgB
hvhCAQ0EIBYeRWFzeS1SU0EgR2VuZXJhdGVkIENlcnRpZmljYXRlMB0GA1UdDgQW
BBSe+EnQonYwXKsrirWNxkUfp/jPhTCB0wYDVR0jBIHLMIHIgBTcpfF2207Nju+x
I1YdkoCZdDvqb6GBpKSBoTCBnjELMAkGA1UEBhMCVVMxCzAJBgNVBAgTAkNBMRUw
EwYDVQQHEwxTYW5GcmFuY2lzY28xETAPBgNVBAoTCEV2aWwgSW5jMREwDwYDVQQL
EwhjaGFuZ2VtZTERMA8GA1UEAxMIY2hhbmdlbWUxETAPBgNVBCkTCGNoYW5nZW1l
MR8wHQYJKoZIhvcNAQkBFhBtYWlsQGhvc3QuZG9tYWluggkA5yEeGEEbloMwEwYD
VR0lBAwwCgYIKwYBBQUHAwIwCwYDVR0PBAQDAgeAMA0GCSqGSIb3DQEBBQUAA4GB
AEh2wBj6Cu5OGuwCndSDypRUoT9RLz5LlcNCm3GgS9mvRyO5HPuFunbiCctlu9J9
RD1LZ7qAg76o7cS56hobx1k72VwNRtjJkssQxfIaOKSqByzjhBZ5x5UJ4wHSFaJ3
C4u/lATpf8DN5i5kzR6jMuwRzGLOx07NrUhcsbjpdrP5
-----END CERTIFICATE-----
