Certificate:
    Data:
        Version: 3 (0x2)
        Serial Number: 3 (0x3)
    Signature Algorithm: sha1WithRSAEncryption
        Issuer: C=US, ST=CA, L=SanFrancisco, O=Fort-Funston, OU=changeme, CN=changeme/name=changeme/emailAddress=mail@host.domain
        Validity
            Not Before: Dec  4 14:17:54 2013 GMT
            Not After : Dec  2 14:17:54 2023 GMT
        Subject: C=US, ST=CA, L=SanFrancisco, O=Fort-Funston, OU=changeme, CN=client/name=changeme/emailAddress=mail@host.domain
        Subject Public Key Info:
            Public Key Algorithm: rsaEncryption
                Public-Key: (1024 bit)
                Modulus:
                    00:ca:c9:05:d0:09:4e:3e:a4:fc:d5:14:f4:a5:e8:
                    34:d3:6b:51:e3:f3:62:ea:a1:f0:e8:ed:c4:2a:bc:
                    f0:4f:ca:07:df:e3:88:fa:f4:21:99:35:0e:3d:ea:
                    b0:86:e7:c4:d2:8a:83:2b:42:b8:ec:a3:99:62:70:
                    81:46:cc:fc:a5:1d:d2:63:e8:eb:07:25:9a:e2:25:
                    6d:11:56:f2:1a:51:a1:b6:3e:1c:57:32:e9:7b:2c:
                    aa:1b:cc:97:2d:89:2d:b1:c9:5e:35:28:4d:7c:fa:
                    65:31:3e:f7:70:dd:6e:0b:3c:58:af:a8:2e:24:c0:
                    7e:4e:78:7d:0a:9e:8f:42:43
                Exponent: 65537 (0x10001)
        X509v3 extensions:
            X509v3 Basic Constraints: 
                CA:FALSE
            Netscape Comment: 
                Easy-RSA Generated Certificate
            X509v3 Subject Key Identifier: 
                DE:42:EF:2D:98:A3:6C:A8:AA:E0:8C:71:2C:9D:64:23:A9:E2:7E:81
            X509v3 Authority Key Identifier: 
                keyid:66:EE:C3:17:3D:3D:AB:44:01:6B:6F:B2:99:19:BD:AA:02:B5:34:FB
                DirName:/C=US/ST=CA/L=SanFrancisco/O=Fort-Funston/OU=changeme/CN=changeme/name=changeme/emailAddress=mail@host.domain
                serial:FD:AB:EC:6A:84:27:04:A7

            X509v3 Extended Key Usage: 
                TLS Web Client Authentication
            X509v3 Key Usage: 
                Digital Signature
    Signature Algorithm: sha1WithRSAEncryption
         1c:44:26:ea:e1:66:25:cb:e4:8e:57:1c:f6:b9:17:22:62:40:
         12:90:8f:3b:b2:61:7a:54:94:8f:b1:20:0b:bf:a3:51:e3:fa:
         1c:a1:be:92:3a:d0:76:44:c0:57:83:ab:6a:e4:1a:45:49:a4:
         af:39:0d:60:32:fc:3a:be:d7:fb:5d:99:7a:1f:87:e7:d5:ab:
         84:a2:5e:90:d8:bf:fa:89:6d:32:26:02:5e:31:35:68:7f:31:
         f5:6b:51:46:bc:af:70:ed:5a:09:7d:ec:b2:48:4f:fe:c5:2f:
         56:04:ad:f6:c1:d2:2a:e4:6a:c4:87:fe:08:35:c5:38:cb:5e:
         4a:c4
-----BEGIN CERTIFICATE-----
MIIEFTCCA36gAwIBAgIBAzANBgkqhkiG9w0BAQUFADCBojELMAkGA1UEBhMCVVMx
CzAJBgNVBAgTAkNBMRUwEwYDVQQHEwxTYW5GcmFuY2lzY28xFTATBgNVBAoTDEZv
cnQtRnVuc3RvbjERMA8GA1UECxMIY2hhbmdlbWUxETAPBgNVBAMTCGNoYW5nZW1l
MREwDwYDVQQpEwhjaGFuZ2VtZTEfMB0GCSqGSIb3DQEJARYQbWFpbEBob3N0LmRv
bWFpbjAeFw0xMzEyMDQxNDE3NTRaFw0yMzEyMDIxNDE3NTRaMIGgMQswCQYDVQQG
EwJVUzELMAkGA1UECBMCQ0ExFTATBgNVBAcTDFNhbkZyYW5jaXNjbzEVMBMGA1UE
ChMMRm9ydC1GdW5zdG9uMREwDwYDVQQLEwhjaGFuZ2VtZTEPMA0GA1UEAxMGY2xp
ZW50MREwDwYDVQQpEwhjaGFuZ2VtZTEfMB0GCSqGSIb3DQEJARYQbWFpbEBob3N0
LmRvbWFpbjCBnzANBgkqhkiG9w0BAQEFAAOBjQAwgYkCgYEAyskF0AlOPqT81RT0
peg002tR4/Ni6qHw6O3EKrzwT8oH3+OI+vQhmTUOPeqwhufE0oqDK0K47KOZYnCB
Rsz8pR3SY+jrByWa4iVtEVbyGlGhtj4cVzLpeyyqG8yXLYktscleNShNfPplMT73
cN1uCzxYr6guJMB+Tnh9Cp6PQkMCAwEAAaOCAVkwggFVMAkGA1UdEwQCMAAwLQYJ
YIZIAYb4QgENBCAWHkVhc3ktUlNBIEdlbmVyYXRlZCBDZXJ0aWZpY2F0ZTAdBgNV
HQ4EFgQU3kLvLZijbKiq4IxxLJ1kI6nifoEwgdcGA1UdIwSBzzCBzIAUZu7DFz09
q0QBa2+ymRm9qgK1NPuhgaikgaUwgaIxCzAJBgNVBAYTAlVTMQswCQYDVQQIEwJD
QTEVMBMGA1UEBxMMU2FuRnJhbmNpc2NvMRUwEwYDVQQKEwxGb3J0LUZ1bnN0b24x
ETAPBgNVBAsTCGNoYW5nZW1lMREwDwYDVQQDEwhjaGFuZ2VtZTERMA8GA1UEKRMI
Y2hhbmdlbWUxHzAdBgkqhkiG9w0BCQEWEG1haWxAaG9zdC5kb21haW6CCQD9q+xq
hCcEpzATBgNVHSUEDDAKBggrBgEFBQcDAjALBgNVHQ8EBAMCB4AwDQYJKoZIhvcN
AQEFBQADgYEAHEQm6uFmJcvkjlcc9rkXImJAEpCPO7JhelSUj7EgC7+jUeP6HKG+
kjrQdkTAV4OrauQaRUmkrzkNYDL8Or7X+12Zeh+H59WrhKJekNi/+oltMiYCXjE1
aH8x9WtRRryvcO1aCX3sskhP/sUvVgSt9sHSKuRqxIf+CDXFOMteSsQ=
-----END CERTIFICATE-----
