Certificate:
    Data:
        Version: 3 (0x2)
        Serial Number: 3 (0x3)
    Signature Algorithm: sha1WithRSAEncryption
        Issuer: C=US, ST=CA, L=SanFrancisco, O=Evil Inc, OU=changeme, CN=changeme/name=changeme/emailAddress=mail@host.domain
        Validity
            Not Before: Feb 28 18:49:31 2014 GMT
            Not After : Feb 26 18:49:31 2024 GMT
        Subject: C=US, ST=CA, L=SanFrancisco, O=Fort-Funston, OU=changeme, CN=localhost/name=changeme/emailAddress=mail@host.domain
        Subject Public Key Info:
            Public Key Algorithm: rsaEncryption
                Public-Key: (1024 bit)
                Modulus:
                    00:d1:08:58:24:60:a1:69:65:4b:76:46:8f:88:75:
                    7c:49:3a:d8:03:cc:5b:58:c5:d1:bb:e5:f9:54:b9:
                    75:65:df:7e:bb:fb:54:d4:b2:e9:6f:58:a2:a4:84:
                    43:94:77:24:81:38:36:36:f0:66:65:26:e5:5b:2a:
                    14:1c:a9:ae:57:7f:75:00:23:14:4b:61:58:e4:82:
                    aa:15:97:94:bd:50:35:0d:5d:18:18:ed:10:6a:bb:
                    d3:64:5a:eb:36:98:5b:58:a7:fe:67:48:c1:6c:3f:
                    51:2f:02:65:96:54:77:9b:34:f9:a7:d2:63:54:6a:
                    9e:02:5c:be:65:98:a4:b4:b5
                Exponent: 65537 (0x10001)
        X509v3 extensions:
            X509v3 Basic Constraints: 
                CA:FALSE
            Netscape Cert Type: 
                SSL Server
            Netscape Comment: 
                Easy-RSA Generated Server Certificate
            X509v3 Subject Key Identifier: 
                1F:E0:57:CA:CB:76:C9:C4:86:B9:EA:69:17:C0:F3:51:CE:95:40:EC
            X509v3 Authority Key Identifier: 
                keyid:DC:A5:F1:76:DB:4E:CD:8E:EF:B1:23:56:1D:92:80:99:74:3B:EA:6F
                DirName:/C=US/ST=CA/L=SanFrancisco/O=Evil Inc/OU=changeme/CN=changeme/name=changeme/emailAddress=mail@host.domain
                serial:E7:21:1E:18:41:1B:96:83

            X509v3 Extended Key Usage: 
                TLS Web Server Authentication
            X509v3 Key Usage: 
                Digital Signature, Key Encipherment
    Signature Algorithm: sha1WithRSAEncryption
         04:93:0e:28:01:94:18:f0:8c:7c:d3:0c:ad:e9:b7:46:b1:30:
         65:ed:68:7c:8c:91:cd:1a:86:66:87:4a:4f:c0:97:bc:f7:85:
         4b:38:79:31:b2:65:88:b1:76:16:9e:80:93:38:f4:b9:eb:65:
         00:6d:bb:89:e0:a1:bf:95:5e:80:13:8e:01:73:d3:f1:08:73:
         85:a5:33:75:0b:42:8a:a3:07:09:35:ef:d7:c6:58:eb:60:a3:
         06:89:a0:53:99:e2:aa:41:90:e0:1a:d2:12:4b:48:7d:c3:9c:
         ad:bd:0e:5e:5f:f7:09:0c:5d:7c:86:24:dd:92:d5:b3:14:06:
         c7:9f
-----BEGIN CERTIFICATE-----
MIIEKjCCA5OgAwIBAgIBAzANBgkqhkiG9w0BAQUFADCBnjELMAkGA1UEBhMCVVMx
CzAJBgNVBAgTAkNBMRUwEwYDVQQHEwxTYW5GcmFuY2lzY28xETAPBgNVBAoTCEV2
aWwgSW5jMREwDwYDVQQLEwhjaGFuZ2VtZTERMA8GA1UEAxMIY2hhbmdlbWUxETAP
BgNVBCkTCGNoYW5nZW1lMR8wHQYJKoZIhvcNAQkBFhBtYWlsQGhvc3QuZG9tYWlu
MB4XDTE0MDIyODE4NDkzMVoXDTI0MDIyNjE4NDkzMVowgaMxCzAJBgNVBAYTAlVT
MQswCQYDVQQIEwJDQTEVMBMGA1UEBxMMU2FuRnJhbmNpc2NvMRUwEwYDVQQKEwxG
b3J0LUZ1bnN0b24xETAPBgNVBAsTCGNoYW5nZW1lMRIwEAYDVQQDEwlsb2NhbGhv
c3QxETAPBgNVBCkTCGNoYW5nZW1lMR8wHQYJKoZIhvcNAQkBFhBtYWlsQGhvc3Qu
ZG9tYWluMIGfMA0GCSqGSIb3DQEBAQUAA4GNADCBiQKBgQDRCFgkYKFpZUt2Ro+I
dXxJOtgDzFtYxdG75flUuXVl3367+1TUsulvWKKkhEOUdySBODY28GZlJuVbKhQc
qa5Xf3UAIxRLYVjkgqoVl5S9UDUNXRgY7RBqu9NkWus2mFtYp/5nSMFsP1EvAmWW
VHebNPmn0mNUap4CXL5lmKS0tQIDAQABo4IBbzCCAWswCQYDVR0TBAIwADARBglg
hkgBhvhCAQEEBAMCBkAwNAYJYIZIAYb4QgENBCcWJUVhc3ktUlNBIEdlbmVyYXRl
ZCBTZXJ2ZXIgQ2VydGlmaWNhdGUwHQYDVR0OBBYEFB/gV8rLdsnEhrnqaRfA81HO
lUDsMIHTBgNVHSMEgcswgciAFNyl8XbbTs2O77EjVh2SgJl0O+pvoYGkpIGhMIGe
MQswCQYDVQQGEwJVUzELMAkGA1UECBMCQ0ExFTATBgNVBAcTDFNhbkZyYW5jaXNj
bzERMA8GA1UEChMIRXZpbCBJbmMxETAPBgNVBAsTCGNoYW5nZW1lMREwDwYDVQQD
EwhjaGFuZ2VtZTERMA8GA1UEKRMIY2hhbmdlbWUxHzAdBgkqhkiG9w0BCQEWEG1h
aWxAaG9zdC5kb21haW6CCQDnIR4YQRuWgzATBgNVHSUEDDAKBggrBgEFBQcDATAL
BgNVHQ8EBAMCBaAwDQYJKoZIhvcNAQEFBQADgYEABJMOKAGUGPCMfNMMrem3RrEw
Ze1ofIyRzRqGZodKT8CXvPeFSzh5MbJliLF2Fp6Akzj0uetlAG27ieChv5VegBOO
AXPT8QhzhaUzdQtCiqMHCTXv18ZY62CjBomgU5niqkGQ4BrSEktIfcOcrb0OXl/3
CQxdfIYk3ZLVsxQGx58=
-----END CERTIFICATE-----
