Certificate:
    Data:
        Version: 3 (0x2)
        Serial Number: 4 (0x4)
    Signature Algorithm: sha1WithRSAEncryption
        Issuer: C=US, ST=CA, L=SanFrancisco, O=Fort-Funston, OU=changeme, CN=changeme/name=changeme/emailAddress=mail@host.domain
        Validity
            Not Before: Dec  4 15:01:20 2013 GMT
            Not After : Dec  2 15:01:20 2023 GMT
        Subject: C=US, ST=CA, L=SanFrancisco, O=Fort-Funston, OU=changeme, CN=*/name=changeme/emailAddress=mail@host.domain
        Subject Public Key Info:
            Public Key Algorithm: rsaEncryption
                Public-Key: (1024 bit)
                Modulus:
                    00:c1:ff:7d:30:6f:64:4a:b1:92:b1:71:d1:c1:74:
                    e2:1d:db:2d:11:24:e1:00:d4:00:ae:6f:c8:9e:ae:
                    67:b3:4a:bd:f7:e6:9e:57:6d:19:4c:3c:23:94:2d:
                    3d:d6:63:84:d8:fa:76:2b:38:12:c1:ed:20:9d:32:
                    e0:e8:c2:bf:9a:77:70:04:3f:7f:ca:8c:2c:82:d6:
                    3d:25:5c:02:1a:4f:64:93:03:dd:9c:42:97:5e:09:
                    49:af:f0:c2:e1:30:08:0e:21:46:95:d1:13:59:c0:
                    c8:76:be:94:0d:8b:43:67:21:33:b2:08:60:9d:76:
                    a8:05:32:1e:f9:95:09:14:75
                Exponent: 65537 (0x10001)
        X509v3 extensions:
            X509v3 Basic Constraints: 
                CA:FALSE
            Netscape Cert Type: 
                SSL Server
            Netscape Comment: 
                Easy-RSA Generated Server Certificate
            X509v3 Subject Key Identifier: 
                14:02:FD:FD:DD:13:38:E0:71:EA:D1:BE:C0:0E:89:1A:2D:B6:19:06
            X509v3 Authority Key Identifier: 
                keyid:66:EE:C3:17:3D:3D:AB:44:01:6B:6F:B2:99:19:BD:AA:02:B5:34:FB
                DirName:/C=US/ST=CA/L=SanFrancisco/O=Fort-Funston/OU=changeme/CN=changeme/name=changeme/emailAddress=mail@host.domain
                serial:FD:AB:EC:6A:84:27:04:A7

            X509v3 Extended Key Usage: 
                TLS Web Server Authentication
            X509v3 Key Usage: 
                Digital Signature, Key Encipherment
    Signature Algorithm: sha1WithRSAEncryption
         40:0f:10:39:c4:b7:0f:0d:2f:bf:d2:16:cc:8e:d3:9a:fb:8b:
         ce:4b:7b:0d:48:77:ce:f1:fe:d5:8f:ea:b1:71:ed:49:1d:9f:
         23:3a:16:d4:70:7c:c5:29:bf:e4:90:34:d0:f0:00:24:f4:e4:
         df:2c:c3:83:01:66:61:c9:a8:ab:29:e7:98:6d:27:89:4a:76:
         c9:2e:19:8e:fe:6e:d5:f8:99:11:0e:97:67:4b:34:e3:1e:e3:
         9f:35:00:a5:32:f9:b5:2c:f2:e0:c5:2e:cc:81:bd:18:dd:5c:
         12:c8:6b:fa:0c:17:74:30:55:f6:6e:20:9a:6c:1e:09:b4:0c:
         15:42
-----BEGIN CERTIFICATE-----
MIIEKjCCA5OgAwIBAgIBBDANBgkqhkiG9w0BAQUFADCBojELMAkGA1UEBhMCVVMx
CzAJBgNVBAgTAkNBMRUwEwYDVQQHEwxTYW5GcmFuY2lzY28xFTATBgNVBAoTDEZv
cnQtRnVuc3RvbjERMA8GA1UECxMIY2hhbmdlbWUxETAPBgNVBAMTCGNoYW5nZW1l
MREwDwYDVQQpEwhjaGFuZ2VtZTEfMB0GCSqGSIb3DQEJARYQbWFpbEBob3N0LmRv
bWFpbjAeFw0xMzEyMDQxNTAxMjBaFw0yMzEyMDIxNTAxMjBaMIGbMQswCQYDVQQG
EwJVUzELMAkGA1UECBMCQ0ExFTATBgNVBAcTDFNhbkZyYW5jaXNjbzEVMBMGA1UE
ChMMRm9ydC1GdW5zdG9uMREwDwYDVQQLEwhjaGFuZ2VtZTEKMAgGA1UEAxQBKjER
MA8GA1UEKRMIY2hhbmdlbWUxHzAdBgkqhkiG9w0BCQEWEG1haWxAaG9zdC5kb21h
aW4wgZ8wDQYJKoZIhvcNAQEBBQADgY0AMIGJAoGBAMH/fTBvZEqxkrFx0cF04h3b
LREk4QDUAK5vyJ6uZ7NKvffmnldtGUw8I5QtPdZjhNj6dis4EsHtIJ0y4OjCv5p3
cAQ/f8qMLILWPSVcAhpPZJMD3ZxCl14JSa/wwuEwCA4hRpXRE1nAyHa+lA2LQ2ch
M7IIYJ12qAUyHvmVCRR1AgMBAAGjggFzMIIBbzAJBgNVHRMEAjAAMBEGCWCGSAGG
+EIBAQQEAwIGQDA0BglghkgBhvhCAQ0EJxYlRWFzeS1SU0EgR2VuZXJhdGVkIFNl
cnZlciBDZXJ0aWZpY2F0ZTAdBgNVHQ4EFgQUFAL9/d0TOOBx6tG+wA6JGi22GQYw
gdcGA1UdIwSBzzCBzIAUZu7DFz09q0QBa2+ymRm9qgK1NPuhgaikgaUwgaIxCzAJ
BgNVBAYTAlVTMQswCQYDVQQIEwJDQTEVMBMGA1UEBxMMU2FuRnJhbmNpc2NvMRUw
EwYDVQQKEwxGb3J0LUZ1bnN0b24xETAPBgNVBAsTCGNoYW5nZW1lMREwDwYDVQQD
EwhjaGFuZ2VtZTERMA8GA1UEKRMIY2hhbmdlbWUxHzAdBgkqhkiG9w0BCQEWEG1h
aWxAaG9zdC5kb21haW6CCQD9q+xqhCcEpzATBgNVHSUEDDAKBggrBgEFBQcDATAL
BgNVHQ8EBAMCBaAwDQYJKoZIhvcNAQEFBQADgYEAQA8QOcS3Dw0vv9IWzI7TmvuL
zkt7DUh3zvH+1Y/qsXHtSR2fIzoW1HB8xSm/5JA00PAAJPTk3yzDgwFmYcmoqynn
mG0niUp2yS4Zjv5u1fiZEQ6XZ0s04x7jnzUApTL5tSzy4MUuzIG9GN1cEshr+gwX
dDBV9m4gmmweCbQMFUI=
-----END CERTIFICATE-----
