Certificate:
    Data:
        Version: 3 (0x2)
        Serial Number: 7365544903199868429 (0x6637ac10ac6ac60d)
    Signature Algorithm: sha1WithRSAEncryption
        Issuer: C=US, O=Google Inc, CN=Google Internet Authority G2
        Validity
            Not Before: Jan 15 14:53:24 2014 GMT
            Not After : May 15 00:00:00 2014 GMT
        Subject: C=US, ST=California, L=Mountain View, O=Google Inc, CN=www.google.com
        Subject Public Key Info:
            Public Key Algorithm: rsaEncryption
                Public-Key: (2048 bit)
                Modulus:
                    00:8e:df:a7:1c:d7:ef:42:ed:9c:91:f2:2d:5e:45:
                    16:c0:03:86:35:f6:24:d1:7b:47:5b:24:4e:7d:56:
                    ef:4d:3d:f1:f7:e3:8c:07:66:73:62:b2:06:2d:08:
                    eb:0b:df:45:30:73:82:2b:7a:71:6f:29:01:6e:c9:
                    62:4f:34:57:4a:b1:cc:d8:05:e7:d1:e6:13:a7:db:
                    3f:6f:3a:77:51:25:a3:de:56:1f:35:5e:55:09:aa:
                    95:8a:b2:69:2c:bf:ae:d0:bb:2b:90:a0:b0:7f:d1:
                    13:e2:b9:84:53:74:e1:42:9a:df:c7:74:6a:48:54:
                    c9:44:e4:1e:43:af:32:a2:9d:4f:83:8b:35:a8:aa:
                    61:6a:ed:e5:b8:9f:f2:6f:22:d6:ee:f2:a3:5b:b8:
                    f4:b5:80:74:3c:08:76:c9:38:3c:b8:c0:42:ed:86:
                    56:84:6c:ad:5a:b6:c7:0b:c8:92:68:c1:1c:52:65:
                    c8:be:ae:b2:ba:3e:26:b9:d2:8c:93:d4:98:51:e6:
                    5c:4a:68:37:94:1c:e5:ff:e9:4a:ba:64:fa:38:f1:
                    14:55:54:82:be:9d:e4:70:e5:bd:4e:05:8f:24:0d:
                    61:29:89:22:82:2f:10:e2:b0:d3:bb:74:7c:f7:91:
                    c1:e3:ab:a9:3c:9a:ca:13:86:78:c3:b0:d4:fa:a6:
                    b1:f1
                Exponent: 65537 (0x10001)
        X509v3 extensions:
            X509v3 Extended Key Usage: 
                TLS Web Server Authentication, TLS Web Client Authentication
            X509v3 Subject Alternative Name: 
                DNS:www.google.com
            Authority Information Access: 
                CA Issuers - URI:http://pki.google.com/GIAG2.crt
                OCSP - URI:http://clients1.google.com/ocsp

            X509v3 Subject Key Identifier: 
                FC:EA:5F:A8:99:3F:92:19:F4:36:48:97:63:59:2B:41:CA:08:12:FB
            X509v3 Basic Constraints: critical
                CA:FALSE
            X509v3 Authority Key Identifier: 
                keyid:4A:DD:06:16:1B:BC:F6:68:B5:76:F5:81:B6:BB:62:1A:BA:5A:81:2F

            X509v3 Certificate Policies: 
                Policy: 1.3.6.1.4.1.11129.2.5.1

            X509v3 CRL Distribution Points: 

                Full Name:
                  URI:http://pki.google.com/GIAG2.crl

    Signature Algorithm: sha1WithRSAEncryption
         28:be:da:f0:a0:ed:92:af:6e:3a:b5:e5:1d:35:ae:c8:46:f2:
         fb:9f:c9:e5:f6:ba:52:97:3d:96:89:b2:bf:fe:e6:72:b2:3b:
         53:1e:f8:73:be:2e:62:04:3a:05:4d:21:16:11:5c:fc:c1:5e:
         a1:59:02:02:69:07:2d:d6:e5:8f:a9:3d:24:b6:b5:75:47:c4:
         3a:c6:de:c9:10:d4:cb:a9:66:ea:f9:a0:4a:0a:30:62:64:e5:
         45:ec:39:07:69:df:75:5a:58:b6:97:f4:84:1d:91:36:c2:4b:
         dd:20:e0:ba:c9:a3:22:1e:9a:df:43:e1:64:16:b6:6c:b9:92:
         fb:26:7f:f4:49:74:b9:b5:ae:d4:05:44:99:9b:e2:bc:5d:49:
         77:81:74:69:bd:69:93:19:cb:61:28:fd:d6:f8:49:03:6b:fd:
         69:98:eb:9d:d8:b0:94:4c:f8:27:9d:cd:7f:ab:a8:2e:6d:5a:
         9a:84:bb:51:15:58:88:53:0e:d4:34:23:95:30:98:bc:8a:ac:
         db:0f:09:83:b0:df:b2:4e:2e:5a:1a:bf:5c:2e:68:31:be:a6:
         21:7c:ad:54:a3:8c:a3:79:a2:9b:6f:6c:fb:5a:70:14:a9:9d:
         65:64:5f:e9:9d:c5:37:52:d5:c8:eb:9a:27:e2:60:b5:0f:e2:
         59:4c:37:73
-----BEGIN CERTIFICATE-----
MIIEdjCCA16gAwIBAgIIZjesEKxqxg0wDQYJKoZIhvcNAQEFBQAwSTELMAkGA1UE
BhMCVVMxEzARBgNVBAoTCkdvb2dsZSBJbmMxJTAjBgNVBAMTHEdvb2dsZSBJbnRl
cm5ldCBBdXRob3JpdHkgRzIwHhcNMTQwMTE1MTQ1MzI0WhcNMTQwNTE1MDAwMDAw
WjBoMQswCQYDVQQGEwJVUzETMBEGA1UECAwKQ2FsaWZvcm5pYTEWMBQGA1UEBwwN
TW91bnRhaW4gVmlldzETMBEGA1UECgwKR29vZ2xlIEluYzEXMBUGA1UEAwwOd3d3
Lmdvb2dsZS5jb20wggEiMA0GCSqGSIb3DQEBAQUAA4IBDwAwggEKAoIBAQCO36cc
1+9C7ZyR8i1eRRbAA4Y19iTRe0dbJE59Vu9NPfH344wHZnNisgYtCOsL30Uwc4Ir
enFvKQFuyWJPNFdKsczYBefR5hOn2z9vOndRJaPeVh81XlUJqpWKsmksv67QuyuQ
oLB/0RPiuYRTdOFCmt/HdGpIVMlE5B5DrzKinU+DizWoqmFq7eW4n/JvItbu8qNb
uPS1gHQ8CHbJODy4wELthlaEbK1atscLyJJowRxSZci+rrK6Pia50oyT1JhR5lxK
aDeUHOX/6Uq6ZPo48RRVVIK+neRw5b1OBY8kDWEpiSKCLxDisNO7dHz3kcHjq6k8
msoThnjDsNT6prHxAgMBAAGjggFBMIIBPTAdBgNVHSUEFjAUBggrBgEFBQcDAQYI
KwYBBQUHAwIwGQYDVR0RBBIwEIIOd3d3Lmdvb2dsZS5jb20waAYIKwYBBQUHAQEE
XDBaMCsGCCsGAQUFBzAChh9odHRwOi8vcGtpLmdvb2dsZS5jb20vR0lBRzIuY3J0
MCsGCCsGAQUFBzABhh9odHRwOi8vY2xpZW50czEuZ29vZ2xlLmNvbS9vY3NwMB0G
A1UdDgQWBBT86l+omT+SGfQ2SJdjWStByggS+zAMBgNVHRMBAf8EAjAAMB8GA1Ud
IwQYMBaAFErdBhYbvPZotXb1gba7Yhq6WoEvMBcGA1UdIAQQMA4wDAYKKwYBBAHW
eQIFATAwBgNVHR8EKTAnMCWgI6Ahhh9odHRwOi8vcGtpLmdvb2dsZS5jb20vR0lB
RzIuY3JsMA0GCSqGSIb3DQEBBQUAA4IBAQAovtrwoO2Sr246teUdNa7IRvL7n8nl
9rpSlz2WibK//uZysjtTHvhzvi5iBDoFTSEWEVz8wV6hWQICaQct1uWPqT0ktrV1
R8Q6xt7JENTLqWbq+aBKCjBiZOVF7DkHad91Wli2l/SEHZE2wkvdIOC6yaMiHprf
Q+FkFrZsuZL7Jn/0SXS5ta7UBUSZm+K8XUl3gXRpvWmTGcthKP3W+EkDa/1pmOud
2LCUTPgnnc1/q6gubVqahLtRFViIUw7UNCOVMJi8iqzbDwmDsN+yTi5aGr9cLmgx
vqYhfK1Uo4yjeaKbb2z7WnAUqZ1lZF/pncU3UtXI65on4mC1D+JZTDdz
-----END CERTIFICATE-----
