Certificate:
     Data:
         Version: 3 (0x2)
         Serial Number: 0 (0x0)
     Signature Algorithm: md5WithRSAEncryption
         Issuer: L=Internet, O=VeriSign, Inc., OU=VeriSign Class 1 CA - Individual Subscriber
         Validity
             Not Before: Apr  8 10:20:27 1996 GMT
             Not After : Apr  8 10:20:27 1997 GMT
         Subject: L=Internet, O=VeriSign, Inc., OU=VeriSign Class 1 CA - Individual Subscriber
         Subject Public Key Info:
             Public Key Algorithm: rsaEncryption
                 Public-Key: (1024 bit)
                 Modulus:
                     00:b6:14:a6:cf:4d:d0:05:0d:d8:ca:23:d0:6f:aa:
                     b4:29:92:63:8e:2c:f8:6f:96:d7:2e:9d:76:4b:11:
                     b1:36:8d:57:c9:c3:fd:1c:c6:ba:fe:1e:08:ba:33:
                     ca:95:ea:be:e3:5b:cd:06:a8:b7:79:1d:44:2a:ed:
                     73:f2:b1:52:83:68:10:70:64:91:d7:3e:6b:f9:f7:
                     5d:9d:14:43:9b:6e:97:45:98:81:47:d1:2d:cb:dd:
                     bb:72:d7:4c:3f:71:aa:e2:40:f2:54:39:bc:16:ee:
                     cf:7c:ec:ba:db:3f:6c:2a:b3:16:b1:86:12:9d:ae:
                     93:34:d5:b8:d5:d0:f7:3e:a9
                 Exponent: 65537 (0x10001)
     Signature Algorithm: md5WithRSAEncryption
          3e:d6:72:6b:c8:db:7c:54:14:63:46:bd:3b:02:b0:c0:57:fd:
          e3:00:7e:c6:8c:37:3d:8e:ca:f1:65:2e:bc:a2:cb:7d:bf:4e:
          82:4e:f4:cd:28:62:fe:2c:84:8d:98:52:d7:97:e2:57:86:01:
          81:d0:96:7d:7e:fc:98:cc:d8:07:43:8e:87:05:49:e0:d4:7e:
          af:a1:a9:5f:26:04:b6:29:d1:28:e7:4c:16:f0:41:59:60:c0:
          e4:4f:59:38:bb:29:f0:26:a9:15:37:64:09:2b:fd:aa:e3:f0:
          3f:54:2a:2f:e6:1e:92:94:cf:00:7d:f8:36:5b:ed:53:2e:ab:
          ea:93
SHA1 Fingerprint=6C:E1:42:24:B0:D0:12:BE:38:84:43:DF:1B:0D:BB:08:CA:BC:44:24
-----BEGIN CERTIFICATE-----
MIICOTCAoAMCAQICAQAwDQYJKoZIhvcNAQEEBQAwYjERMA8GA1UEBxMISW50ZXJu
ZXQxFzAVBgNVBAoTDlZlcmlTaWduLCBJbmMuMTQwMgYDVQQLEytWZXJpU2lnbiBD
bGFzcyAxIENBIC0gSW5kaXZpZHVhbCBTdWJzY3JpYmVyMB4XDTk2MDQwODEwMjAy
N1oXDTk3MDQwODEwMjAyN1owYjERMA8GA1UEBxMISW50ZXJuZXQxFzAVBgNVBAoT
DlZlcmlTaWduLCBJbmMuMTQwMgYDVQQLEytWZXJpU2lnbiBDbGFzcyAxIENBIC0g
SW5kaXZpZHVhbCBTdWJzY3JpYmVyMIAwDQYJKoZIhvcNAQEBBQADgY0AMIGJAoGB
ALYUps9N0AUN2Moj0G+qtCmSY44s+G+W1y6ddksRsTaNV8nD/RzGuv4eCLozypXq
vuNbzQaot3kdRCrtc/KxUoNoEHBkkdc+a/n3XZ0UQ5tul0WYgUfRLcvdu3LXTD9x
quJA8lQ5vBbuz3zsuts/bCqzFrGGEp2ukzTVuNXQ9z6pAgMBAAEAAAAAMA0GCSqG
SIb3DQEBBAUAA4GBAD7WcmvI23xUFGNGvTsCsMBX/eMAfsaMNz2OyvFlLryiy32/
ToJO9M0oYv4shI2YUteX4leGAYHQln1+/JjM2AdDjocFSeDUfq+hqV8mBLYp0Sjn
TBbwQVlgwORPWTi7KfAmqRU3ZAkr/arj8D9UKi/mHpKUzwB9+DZb7VMuq+qT
-----END CERTIFICATE-----
