Certificate:
    Data:
        Version: 3 (0x2)
        Serial Number: -6415878144548391555 (-0x5909c72dffffca83)
    Signature Algorithm: sha1WithRSAEncryption
        Issuer: C=KR, O=CrossCert, OU=AccreditedCA, CN=CrossCert Class 1 Server CA
        Validity
            Not Before: Oct 18 04:36:00 2012 GMT
            Not After : Oct 18 14:59:59 2013 GMT
        Subject: C=KR, O=CrossCert, OU=AccreditedCA, OU=SSL, CN=www.itmulticampus.com
        Subject Public Key Info:
            Public Key Algorithm: rsaEncryption
                Public-Key: (2048 bit)
                Modulus:
                    00:9c:17:22:80:de:a2:39:9c:1d:6c:08:22:28:75:
                    77:8b:40:19:37:51:c4:69:5f:68:e0:f4:a1:e8:ab:
                    46:ab:f7:56:dd:19:bf:32:f2:31:c8:c4:d3:ae:98:
                    7c:b8:42:63:34:95:07:55:06:31:1d:ad:d9:fc:93:
                    4e:50:a3:07:42:5b:0b:93:7c:47:36:ff:bc:76:b4:
                    24:f4:a3:8e:3c:af:d6:98:0b:45:44:d0:e7:2c:e9:
                    1a:e4:bd:88:22:f3:b5:9d:54:b0:39:fe:0c:db:6f:
                    3f:b3:9e:07:56:a6:d5:e1:21:64:34:37:53:33:8a:
                    f5:48:a3:dc:00:4c:53:15:ef:0f:c8:73:f3:19:a6:
                    d3:3e:d7:0d:4d:b8:26:48:ec:31:72:0d:60:3d:ac:
                    49:e6:5f:d3:a0:c2:35:fc:21:b3:cb:be:15:c9:cc:
                    43:3d:ae:9b:15:43:28:0a:94:98:68:aa:80:74:cb:
                    ce:5c:56:63:5c:23:b1:0b:17:d2:5f:9d:45:51:a9:
                    04:76:cb:c2:4a:21:e1:c2:5f:68:30:6e:08:a9:a8:
                    11:fd:e3:da:c5:28:c7:9a:98:e3:b4:71:61:09:d5:
                    05:a0:94:aa:05:21:77:36:46:74:ac:a5:fb:cc:00:
                    7d:d1:4c:6a:c6:42:17:b9:1e:60:86:14:c8:35:0a:
                    46:e3
                Exponent: 65537 (0x10001)
        X509v3 extensions:
            X509v3 Authority Key Identifier: 
                keyid:6D:B8:FF:92:5C:B1:BF:E9:49:78:31:7C:80:75:C0:62:10:4B:BD:38
                DirName:/C=KR/O=KISA/OU=Korea Certification Authority Central/CN=KISA RootCA 1
                serial:27:87

            X509v3 Subject Key Identifier: 
                AC:4C:F6:A6:48:04:F2:A7:09:F2:98:A6:31:33:7F:DB:F4:1A:B3:6E
            X509v3 Key Usage: critical
                Digital Signature, Key Encipherment
            X509v3 Certificate Policies: 
                Policy: 1.2.410.200004.5.4.6
                  CPS: http://gca.crosscert.com/cps.html
                  User Notice:
                    Explicit Text: Çt

            X509v3 CRL Distribution Points: 

                Full Name:
                  URI:ldap://ssldir.crosscert.com:389/cn=s1dp6p1,ou=crldp,ou=AccreditedCA,o=CrossCert,c=KR?certificateRevocationList

            Authority Information Access: 
                CA Issuers - URI:ldap://ssl.crosscert.com:389/cn=CrossCert Class 1 Server CA,ou=AccreditedCA,o=CrossCert,c=KR?cACertificate;binary

    Signature Algorithm: sha1WithRSAEncryption
         9f:85:4f:f9:c2:4b:93:53:a3:33:82:13:44:10:95:21:1e:47:
         00:4d:7e:17:da:4a:0b:fb:13:e4:45:b6:45:8d:a9:d4:81:9f:
         e8:9b:6b:59:a0:d6:bd:63:8a:d0:ce:40:a3:51:64:5c:2c:ba:
         4e:a1:60:d1:61:2f:6c:48:1d:67:0c:52:82:36:ff:e3:6c:8c:
         43:8c:b1:a2:2a:0b:6c:0c:ed:a9:76:71:ee:52:94:3d:2a:fa:
         b2:fa:10:d2:a6:ea:a6:b5:39:0d:2a:cb:1f:8e:2e:32:5b:87:
         ca:f0:1b:e1:26:d9:3a:65:c7:69:b2:47:e8:49:d1:08:4e:5c:
         ba:b2:59:d4:f2:ec:95:55:b6:42:0f:a1:8e:d1:2e:c1:27:b9:
         e9:23:20:52:f4:74:87:12:d8:15:90:b9:4a:bd:b7:84:e2:f4:
         54:75:91:25:c8:99:02:cc:e7:d4:d9:6b:34:8e:cf:4e:e4:f6:
         b7:6a:dc:c5:8d:7b:5f:98:24:57:05:6d:bb:c0:e1:52:8c:13:
         77:d1:b3:42:63:11:c7:be:1c:65:2c:65:5a:2e:b8:9b:a1:61:
         f5:34:d4:94:78:b0:e2:29:0f:39:02:8a:47:58:31:d5:67:4c:
         91:ed:3a:ea:3c:0f:35:bb:e5:00:16:a1:5a:a3:d0:9e:e3:a8:
         0f:f4:78:ad
-----BEGIN CERTIFICATE-----
MIIFnDCCBISgAwIBAgIIpvY40gAANX0wDQYJKoZIhvcNAQEFBQAwXjELMAkGA1UE
BhMCS1IxEjAQBgNVBAoMCUNyb3NzQ2VydDEVMBMGA1UECwwMQWNjcmVkaXRlZENB
MSQwIgYDVQQDDBtDcm9zc0NlcnQgQ2xhc3MgMSBTZXJ2ZXIgQ0EwHhcNMTIxMDE4
MDQzNjAwWhcNMTMxMDE4MTQ1OTU5WjBmMQswCQYDVQQGEwJLUjESMBAGA1UECgwJ
Q3Jvc3NDZXJ0MRUwEwYDVQQLDAxBY2NyZWRpdGVkQ0ExDDAKBgNVBAsMA1NTTDEe
MBwGA1UEAwwVd3d3Lml0bXVsdGljYW1wdXMuY29tMIIBIjANBgkqhkiG9w0BAQEF
AAOCAQ8AMIIBCgKCAQEAnBcigN6iOZwdbAgiKHV3i0AZN1HEaV9o4PSh6KtGq/dW
3Rm/MvIxyMTTrph8uEJjNJUHVQYxHa3Z/JNOUKMHQlsLk3xHNv+8drQk9KOOPK/W
mAtFRNDnLOka5L2IIvO1nVSwOf4M228/s54HVqbV4SFkNDdTM4r1SKPcAExTFe8P
yHPzGabTPtcNTbgmSOwxcg1gPaxJ5l/ToMI1/CGzy74VycxDPa6bFUMoCpSYaKqA
dMvOXFZjXCOxCxfSX51FUakEdsvCSiHhwl9oMG4IqagR/ePaxSjHmpjjtHFhCdUF
oJSqBSF3NkZ0rKX7zAB90UxqxkIXuR5ghhTINQpG4wIDAQABo4ICVDCCAlAwgY8G
A1UdIwSBhzCBhIAUbbj/klyxv+lJeDF8gHXAYhBLvTihaKRmMGQxCzAJBgNVBAYT
AktSMQ0wCwYDVQQKDARLSVNBMS4wLAYDVQQLDCVLb3JlYSBDZXJ0aWZpY2F0aW9u
IEF1dGhvcml0eSBDZW50cmFsMRYwFAYDVQQDDA1LSVNBIFJvb3RDQSAxggInhzAd
BgNVHQ4EFgQUrEz2pkgE8qcJ8pimMTN/2/Qas24wDgYDVR0PAQH/BAQDAgWgMHsG
A1UdIAR0MHIwcAYJKoMajJpEBQQGMGMwLQYIKwYBBQUHAgEWIWh0dHA6Ly9nY2Eu
Y3Jvc3NjZXJ0LmNvbS9jcHMuaHRtbDAyBggrBgEFBQcCAjAmHiTHdAAgx3jJncEc
spQAIMb5wRy8hAAgx3jJncEcx4WyyLLkAC4wfwYDVR0fBHgwdjB0oHKgcIZubGRh
cDovL3NzbGRpci5jcm9zc2NlcnQuY29tOjM4OS9jbj1zMWRwNnAxLG91PWNybGRw
LG91PUFjY3JlZGl0ZWRDQSxvPUNyb3NzQ2VydCxjPUtSP2NlcnRpZmljYXRlUmV2
b2NhdGlvbkxpc3QwgY4GCCsGAQUFBwEBBIGBMH8wfQYIKwYBBQUHMAKGcWxkYXA6
Ly9zc2wuY3Jvc3NjZXJ0LmNvbTozODkvY249Q3Jvc3NDZXJ0IENsYXNzIDEgU2Vy
dmVyIENBLG91PUFjY3JlZGl0ZWRDQSxvPUNyb3NzQ2VydCxjPUtSP2NBQ2VydGlm
aWNhdGU7YmluYXJ5MA0GCSqGSIb3DQEBBQUAA4IBAQCfhU/5wkuTU6MzghNEEJUh
HkcATX4X2koL+xPkRbZFjanUgZ/om2tZoNa9Y4rQzkCjUWRcLLpOoWDRYS9sSB1n
DFKCNv/jbIxDjLGiKgtsDO2pdnHuUpQ9Kvqy+hDSpuqmtTkNKssfji4yW4fK8Bvh
Jtk6ZcdpskfoSdEITly6slnU8uyVVbZCD6GO0S7BJ7npIyBS9HSHEtgVkLlKvbeE
4vRUdZElyJkCzOfU2Ws0js9O5Pa3atzFjXtfmCRXBW27wOFSjBN30bNCYxHHvhxl
LGVaLriboWH1NNSUeLDiKQ85AopHWDHVZ0yR7TrqPA81u+UAFqFao9Ce46gP9Hit
-----END CERTIFICATE-----
