Certificate:
    Data:
        Version: 1 (0x0)
        Serial Number: 12860269865535673520 (0xb278db4e5aea14b0)
    Signature Algorithm: sha1WithRSAEncryption
        Issuer: CN=\xC3\xB1eco \xC3\xB1\xC3\xBD\xC3\xA1\xC4\x9B\xC5\xA1\xC5\xBE\xC4\x9B\xC5\xA1\xC5\xBE\xC5\x99\xC4\x9B\xC4\x8D\xC3\xAD\xC4\x9B+\xC5\xA1\xC4\x8D\xC3\xBD\xC3\xA1\xC3\xAD\xC3\xA9\xC5\x99\xC3\xA1\xC3\xAD\xC3\x9A
        Validity
            Not Before: Mar  3 16:03:37 2009 GMT
            Not After : Apr  2 16:03:37 2009 GMT
        Subject: CN=\xC3\xB1eco \xC3\xB1\xC3\xBD\xC3\xA1\xC4\x9B\xC5\xA1\xC5\xBE\xC4\x9B\xC5\xA1\xC5\xBE\xC5\x99\xC4\x9B\xC4\x8D\xC3\xAD\xC4\x9B+\xC5\xA1\xC4\x8D\xC3\xBD\xC3\xA1\xC3\xAD\xC3\xA9\xC5\x99\xC3\xA1\xC3\xAD\xC3\x9A
        Subject Public Key Info:
            Public Key Algorithm: rsaEncryption
                Public-Key: (1024 bit)
                Modulus:
                    00:d0:a3:b3:71:98:a5:33:20:94:4d:3e:da:a6:7e:
                    67:d9:b4:ad:cf:02:43:b6:c3:bf:23:ce:11:26:a5:
                    b5:6f:ec:23:fa:42:72:78:86:95:9c:6b:7b:e2:93:
                    be:7c:39:3b:5b:5d:52:27:c6:0e:f2:60:c4:42:cd:
                    60:4d:80:58:f7:8d:58:bc:b0:a8:9a:e2:ef:43:c9:
                    62:de:ac:85:60:dd:da:e1:80:4f:02:b0:4e:d6:9d:
                    80:9e:59:6e:52:08:b1:39:fa:26:d1:90:59:96:dd:
                    b4:81:a8:f1:0f:b1:b2:de:11:25:a4:4f:18:60:f0:
                    0d:23:bb:9f:54:3c:eb:15:b9
                Exponent: 65537 (0x10001)
    Signature Algorithm: sha1WithRSAEncryption
         cd:3d:74:69:6f:64:cf:f7:cc:77:c6:0e:ae:7e:f5:fc:ec:c5:
         b9:3f:7d:49:44:20:9e:b3:1b:e0:0c:c0:0d:28:e7:9f:c0:f6:
         ef:9a:9c:b5:62:c3:4b:26:4b:13:94:d6:b7:cc:6a:c2:7c:90:
         d5:3a:2b:4b:2e:38:87:66:53:b9:ce:aa:25:9d:9c:b6:3f:b6:
         2f:ea:d1:b0:2b:10:27:4a:6c:25:3c:9d:09:07:7e:71:84:e4:
         6e:84:7f:40:2f:18:ee:b1:b6:e2:99:13:2c:b0:5a:c0:cf:8a:
         53:50:50:67:26:6f:6c:b1:1d:f1:4a:ed:34:5f:51:7d:e4:dd:
         ad:e0
-----BEGIN CERTIFICATE-----
MIIB+zCCAWQCCQCyeNtOWuoUsDANBgkqhkiG9w0BAQUFADBCMUAwPgYDVQQDDDfD
sWVjbyDDscO9w6HEm8Whxb7Em8Whxb7FmcSbxI3DrcSbK8WhxI3DvcOhw63DqcWZ
w6HDrcOaMB4XDTA5MDMwMzE2MDMzN1oXDTA5MDQwMjE2MDMzN1owQjFAMD4GA1UE
Aww3w7FlY28gw7HDvcOhxJvFocW+xJvFocW+xZnEm8SNw63EmyvFocSNw73DocOt
w6nFmcOhw63DmjCBnzANBgkqhkiG9w0BAQEFAAOBjQAwgYkCgYEA0KOzcZilMyCU
TT7apn5n2bStzwJDtsO/I84RJqW1b+wj+kJyeIaVnGt74pO+fDk7W11SJ8YO8mDE
Qs1gTYBY941YvLComuLvQ8li3qyFYN3a4YBPArBO1p2AnlluUgixOfom0ZBZlt20
gajxD7Gy3hElpE8YYPANI7ufVDzrFbkCAwEAATANBgkqhkiG9w0BAQUFAAOBgQDN
PXRpb2TP98x3xg6ufvX87MW5P31JRCCesxvgDMANKOefwPbvmpy1YsNLJksTlNa3
zGrCfJDVOitLLjiHZlO5zqolnZy2P7Yv6tGwKxAnSmwlPJ0JB35xhORuhH9ALxju
sbbimRMssFrAz4pTUFBnJm9ssR3xSu00X1F95N2t4A==
-----END CERTIFICATE-----
