Certificate:
    Data:
        Version: 3 (0x2)
        Serial Number:
            14:bf:b1:c5:9a:4e:9d:78:6e:39:7e:de:73:83:63:fa
    Signature Algorithm: ecdsa-with-SHA256
        Issuer: C=US, O=Symantec Corporation, OU=Symantec Trust Network, CN=Symantec Class 3 ECC 256 bit Extended Validation CA
        Validity
            Not Before: May 27 00:00:00 2013 GMT
            Not After : May 28 23:59:59 2014 GMT
        Subject: 1.3.6.1.4.1.311.60.2.1.3=JP/businessCategory=Private Organization/serialNumber=0110-01-057742, C=JP/postalCode=1500002, ST=\xE6\x9D\xB1\xE4\xBA\xAC\xE9\x83\xBD, L=\xE6\xB8\x8B\xE8\xB0\xB7\xE5\x8C\xBA/street=\xE6\xB8\x8B\xE8\xB0\xB7\xEF\xBC\x93\xE2\x80\x95\xEF\xBC\x92\xEF\xBC\x97\xE2\x80\x95\xEF\xBC\x91\xEF\xBC\x91\xE3\x80\x80\xE7\xA5\x90\xE7\x9C\x9F\xE3\x83\x93\xE3\x83\xAB\xE6\x96\xB0\xE9\xA4\xA8\xEF\xBC\x91\xEF\xBC\x90\xE9\x9A\x8E, O=\xE6\xA0\xAA\xE5\xBC\x8F\xE4\xBC\x9A\xE7\xA4\xBE\xE3\x83\x87\xE3\x82\xA3\xE3\x83\xAC\xE3\x82\xAF\xE3\x82\xBF\xE3\x83\xBC\xE3\x82\xBA, CN=kmonos.jp
        Subject Public Key Info:
            Public Key Algorithm: id-ecPublicKey
                Public-Key: (256 bit)
                pub: 
                    04:3f:70:02:9c:82:94:3e:8e:61:7e:74:d1:e6:2a:
                    5f:fa:e5:85:7d:1e:21:7a:fb:b2:ee:1f:ec:a2:61:
                    72:88:e2:e3:70:88:0b:92:b3:54:69:4b:bb:2f:71:
                    7c:be:55:c1:aa:7d:04:26:07:43:be:f1:3a:b6:14:
                    d4:e3:ae:b9:fb
                ASN1 OID: prime256v1
        X509v3 extensions:
            X509v3 Subject Alternative Name: 
                DNS:kmonos.jp
            X509v3 Basic Constraints: 
                CA:FALSE
            X509v3 Key Usage: critical
                Digital Signature
            X509v3 Extended Key Usage: 
                TLS Web Server Authentication, TLS Web Client Authentication
            X509v3 Certificate Policies: 
                Policy: 2.16.840.1.113733.1.7.23.6
                  CPS: https://www.verisign.com/cps

            X509v3 Authority Key Identifier: 
                keyid:48:13:65:17:94:EC:9E:16:2A:2A:74:5C:E8:53:2D:B4:FB:83:EB:8E

            X509v3 CRL Distribution Points: 

                Full Name:
                  URI:http://EV256SecureECC-crl.ws.symantec.com/EV256SecureECC.crl

            Authority Information Access: 
                OCSP - URI:http://EV256SecureECC-ocsp.ws.symantec.com
                CA Issuers - URI:http://EV256SecureECC-aia.ws.symantec.com/EV256SecureECC.cer

    Signature Algorithm: ecdsa-with-SHA256
         30:46:02:21:00:cd:31:fa:ce:bf:32:e3:f6:30:46:8a:52:72:
         b3:e1:f6:c3:1c:c0:60:a8:88:0a:ea:a5:6d:99:e5:44:b8:65:
         32:02:21:00:ba:53:fe:25:df:e0:31:56:0c:33:0f:d9:60:a0:
         b5:19:d9:58:d2:67:15:19:78:cf:b4:94:09:cd:fa:34:78:1d
-----BEGIN CERTIFICATE-----
MIIERjCCA+ugAwIBAgIQFL+xxZpOnXhuOX7ec4Nj+jAKBggqhkjOPQQDAjCBizEL
MAkGA1UEBhMCVVMxHTAbBgNVBAoTFFN5bWFudGVjIENvcnBvcmF0aW9uMR8wHQYD
VQQLExZTeW1hbnRlYyBUcnVzdCBOZXR3b3JrMTwwOgYDVQQDEzNTeW1hbnRlYyBD
bGFzcyAzIEVDQyAyNTYgYml0IEV4dGVuZGVkIFZhbGlkYXRpb24gQ0EwHhcNMTMw
NTI3MDAwMDAwWhcNMTQwNTI4MjM1OTU5WjCCARgxEzARBgsrBgEEAYI3PAIBAxMC
SlAxHTAbBgNVBA8TFFByaXZhdGUgT3JnYW5pemF0aW9uMRcwFQYDVQQFEw4wMTEw
LTAxLTA1Nzc0MjELMAkGA1UEBhMCSlAxEDAOBgNVBBEMBzE1MDAwMDIxEjAQBgNV
BAgMCeadseS6rOmDvTESMBAGA1UEBwwJ5riL6LC35Yy6MUIwQAYDVQQJDDnmuIvo
sLfvvJPigJXvvJLvvJfigJXvvJHvvJHjgIDnpZDnnJ/jg5Pjg6vmlrDppKjvvJHv
vJDpmo4xKjAoBgNVBAoMIeagquW8j+S8muekvuODh+OCo+ODrOOCr+OCv+ODvOOC
ujESMBAGA1UEAwwJa21vbm9zLmpwMFkwEwYHKoZIzj0CAQYIKoZIzj0DAQcDQgAE
P3ACnIKUPo5hfnTR5ipf+uWFfR4hevuy7h/somFyiOLjcIgLkrNUaUu7L3F8vlXB
qn0EJgdDvvE6thTU4665+6OCAZ8wggGbMBQGA1UdEQQNMAuCCWttb25vcy5qcDAJ
BgNVHRMEAjAAMA4GA1UdDwEB/wQEAwIHgDAdBgNVHSUEFjAUBggrBgEFBQcDAQYI
KwYBBQUHAwIwRAYDVR0gBD0wOzA5BgtghkgBhvhFAQcXBjAqMCgGCCsGAQUFBwIB
FhxodHRwczovL3d3dy52ZXJpc2lnbi5jb20vY3BzMB8GA1UdIwQYMBaAFEgTZReU
7J4WKip0XOhTLbT7g+uOME0GA1UdHwRGMEQwQqBAoD6GPGh0dHA6Ly9FVjI1NlNl
Y3VyZUVDQy1jcmwud3Muc3ltYW50ZWMuY29tL0VWMjU2U2VjdXJlRUNDLmNybDCB
kgYIKwYBBQUHAQEEgYUwgYIwNgYIKwYBBQUHMAGGKmh0dHA6Ly9FVjI1NlNlY3Vy
ZUVDQy1vY3NwLndzLnN5bWFudGVjLmNvbTBIBggrBgEFBQcwAoY8aHR0cDovL0VW
MjU2U2VjdXJlRUNDLWFpYS53cy5zeW1hbnRlYy5jb20vRVYyNTZTZWN1cmVFQ0Mu
Y2VyMAoGCCqGSM49BAMCA0kAMEYCIQDNMfrOvzLj9jBGilJys+H2wxzAYKiICuql
bZnlRLhlMgIhALpT/iXf4DFWDDMP2WCgtRnZWNJnFRl4z7SUCc36NHgd
-----END CERTIFICATE-----
