Certificate:
    Data:
        Version: 3 (0x2)
        Serial Number:
            60:53:81:f5:00:01:00:00:88:bd
    Signature Algorithm: sha1WithRSAEncryption
        Issuer: C=US, O=Google Inc, CN=Google Internet Authority
        Validity
            Not Before: May 22 15:49:04 2013 GMT
            Not After : Oct 31 23:59:59 2013 GMT
        Subject: C=US, ST=California, L=Mountain View, O=Google Inc, CN=*.google.com
        Subject Public Key Info:
            Public Key Algorithm: id-ecPublicKey
                Public-Key: (256 bit)
                pub: 
                    04:66:4a:92:14:6c:2a:a1:50:1a:b5:53:09:d1:02:
                    2e:ff:4c:d4:a4:e9:6f:09:99:ab:11:f8:8d:2b:fc:
                    d2:c3:62:fe:72:02:96:c0:cf:c1:d7:5c:df:21:0d:
                    db:ab:31:13:fa:27:2d:50:d1:42:0a:9b:29:6c:f0:
                    73:c7:7b:1a:02
                ASN1 OID: prime256v1
        X509v3 extensions:
            X509v3 Extended Key Usage: 
                TLS Web Server Authentication, TLS Web Client Authentication
            X509v3 Key Usage: 
                Digital Signature
            X509v3 Subject Key Identifier: 
                53:78:D3:D0:D5:4D:46:05:39:66:29:D1:1C:6A:E5:CA:81:84:9E:86
            X509v3 Authority Key Identifier: 
                keyid:BF:C0:30:EB:F5:43:11:3E:67:BA:9E:91:FB:FC:6A:DA:E3:6B:12:24

            X509v3 CRL Distribution Points: 

                Full Name:
                  URI:http://www.gstatic.com/GoogleInternetAuthority/GoogleInternetAuthority.crl

            Authority Information Access: 
                CA Issuers - URI:http://www.gstatic.com/GoogleInternetAuthority/GoogleInternetAuthority.crt

            X509v3 Basic Constraints: critical
                CA:FALSE
            X509v3 Subject Alternative Name: 
                DNS:*.google.com, DNS:*.android.com, DNS:*.appengine.google.com, DNS:*.cloud.google.com, DNS:*.google-analytics.com, DNS:*.google.ca, DNS:*.google.cl, DNS:*.google.co.in, DNS:*.google.co.jp, DNS:*.google.co.uk, DNS:*.google.com.ar, DNS:*.google.com.au, DNS:*.google.com.br, DNS:*.google.com.co, DNS:*.google.com.mx, DNS:*.google.com.tr, DNS:*.google.com.vn, DNS:*.google.de, DNS:*.google.es, DNS:*.google.fr, DNS:*.google.hu, DNS:*.google.it, DNS:*.google.nl, DNS:*.google.pl, DNS:*.google.pt, DNS:*.googleapis.cn, DNS:*.googlecommerce.com, DNS:*.gstatic.com, DNS:*.urchin.com, DNS:*.url.google.com, DNS:*.youtube-nocookie.com, DNS:*.youtube.com, DNS:*.youtubeeducation.com, DNS:*.ytimg.com, DNS:android.com, DNS:g.co, DNS:goo.gl, DNS:google-analytics.com, DNS:google.com, DNS:googlecommerce.com, DNS:urchin.com, DNS:youtu.be, DNS:youtube.com, DNS:youtubeeducation.com
    Signature Algorithm: sha1WithRSAEncryption
         03:27:d0:ad:e3:df:28:42:f9:7f:ae:ca:1e:9e:00:16:b6:12:
         ae:f1:89:8e:7f:99:40:7c:f3:a2:2b:d7:db:f1:96:e4:8c:34:
         a0:fa:9f:f8:98:f2:f1:e3:b6:b9:f4:06:1b:96:f3:fb:e6:27:
         2b:9d:16:42:1c:10:35:18:13:88:af:40:c9:6c:7c:82:fb:48:
         e1:b0:e8:e7:af:54:b9:a6:d3:66:a2:44:75:a3:e5:3d:b4:0e:
         cf:92:3a:9b:9e:61:41:b7:34:17:07:3f:fe:48:ce:15:18:21:
         02:5b:1b:39:50:69:46:99:04:c6:90:78:2f:19:b2:53:0d:2d:
         62:36
-----BEGIN CERTIFICATE-----
MIIF8DCCBVmgAwIBAgIKYFOB9QABAACIvTANBgkqhkiG9w0BAQUFADBGMQswCQYD
VQQGEwJVUzETMBEGA1UEChMKR29vZ2xlIEluYzEiMCAGA1UEAxMZR29vZ2xlIElu
dGVybmV0IEF1dGhvcml0eTAeFw0xMzA1MjIxNTQ5MDRaFw0xMzEwMzEyMzU5NTla
MGYxCzAJBgNVBAYTAlVTMRMwEQYDVQQIEwpDYWxpZm9ybmlhMRYwFAYDVQQHEw1N
b3VudGFpbiBWaWV3MRMwEQYDVQQKEwpHb29nbGUgSW5jMRUwEwYDVQQDFAwqLmdv
b2dsZS5jb20wWTATBgcqhkjOPQIBBggqhkjOPQMBBwNCAARmSpIUbCqhUBq1UwnR
Ai7/TNSk6W8JmasR+I0r/NLDYv5yApbAz8HXXN8hDdurMRP6Jy1Q0UIKmyls8HPH
exoCo4IECjCCBAYwHQYDVR0lBBYwFAYIKwYBBQUHAwEGCCsGAQUFBwMCMAsGA1Ud
DwQEAwIHgDAdBgNVHQ4EFgQUU3jT0NVNRgU5ZinRHGrlyoGEnoYwHwYDVR0jBBgw
FoAUv8Aw6/VDET5nup6R+/xq2uNrEiQwWwYDVR0fBFQwUjBQoE6gTIZKaHR0cDov
L3d3dy5nc3RhdGljLmNvbS9Hb29nbGVJbnRlcm5ldEF1dGhvcml0eS9Hb29nbGVJ
bnRlcm5ldEF1dGhvcml0eS5jcmwwZgYIKwYBBQUHAQEEWjBYMFYGCCsGAQUFBzAC
hkpodHRwOi8vd3d3LmdzdGF0aWMuY29tL0dvb2dsZUludGVybmV0QXV0aG9yaXR5
L0dvb2dsZUludGVybmV0QXV0aG9yaXR5LmNydDAMBgNVHRMBAf8EAjAAMIICwwYD
VR0RBIICujCCAraCDCouZ29vZ2xlLmNvbYINKi5hbmRyb2lkLmNvbYIWKi5hcHBl
bmdpbmUuZ29vZ2xlLmNvbYISKi5jbG91ZC5nb29nbGUuY29tghYqLmdvb2dsZS1h
bmFseXRpY3MuY29tggsqLmdvb2dsZS5jYYILKi5nb29nbGUuY2yCDiouZ29vZ2xl
LmNvLmlugg4qLmdvb2dsZS5jby5qcIIOKi5nb29nbGUuY28udWuCDyouZ29vZ2xl
LmNvbS5hcoIPKi5nb29nbGUuY29tLmF1gg8qLmdvb2dsZS5jb20uYnKCDyouZ29v
Z2xlLmNvbS5jb4IPKi5nb29nbGUuY29tLm14gg8qLmdvb2dsZS5jb20udHKCDyou
Z29vZ2xlLmNvbS52boILKi5nb29nbGUuZGWCCyouZ29vZ2xlLmVzggsqLmdvb2ds
ZS5mcoILKi5nb29nbGUuaHWCCyouZ29vZ2xlLml0ggsqLmdvb2dsZS5ubIILKi5n
b29nbGUucGyCCyouZ29vZ2xlLnB0gg8qLmdvb2dsZWFwaXMuY26CFCouZ29vZ2xl
Y29tbWVyY2UuY29tgg0qLmdzdGF0aWMuY29tggwqLnVyY2hpbi5jb22CECoudXJs
Lmdvb2dsZS5jb22CFioueW91dHViZS1ub2Nvb2tpZS5jb22CDSoueW91dHViZS5j
b22CFioueW91dHViZWVkdWNhdGlvbi5jb22CCyoueXRpbWcuY29tggthbmRyb2lk
LmNvbYIEZy5jb4IGZ29vLmdsghRnb29nbGUtYW5hbHl0aWNzLmNvbYIKZ29vZ2xl
LmNvbYISZ29vZ2xlY29tbWVyY2UuY29tggp1cmNoaW4uY29tggh5b3V0dS5iZYIL
eW91dHViZS5jb22CFHlvdXR1YmVlZHVjYXRpb24uY29tMA0GCSqGSIb3DQEBBQUA
A4GBAAMn0K3j3yhC+X+uyh6eABa2Eq7xiY5/mUB886Ir19vxluSMNKD6n/iY8vHj
trn0BhuW8/vmJyudFkIcEDUYE4ivQMlsfIL7SOGw6OevVLmm02aiRHWj5T20Ds+S
OpueYUG3NBcHP/5IzhUYIQJbGzlQaUaZBMaQeC8ZslMNLWI2
-----END CERTIFICATE-----
