Certificate:
    Data:
        Version: 3 (0x2)
        Serial Number: 141900 (0x22a4c)
    Signature Algorithm: sha1WithRSAEncryption
        Issuer: C=US, O=Cybertrust Inc, OU=Services, OU=PKI, CN=Cybertrust Public Issuing CA 1
        Validity
            Not Before: Jun 21 20:39:30 2012 GMT
            Not After : Jun 21 20:39:30 2013 GMT
        Subject: DC=gov, DC=va, ST=West Virginia, L=Falling Waters, O=US Department of Veterans Affairs, OU=Capitol Region Data Center, CN=www.valu.va.gov
        Subject Public Key Info:
            Public Key Algorithm: rsaEncryption
                Public-Key: (2048 bit)
                Modulus:
                    00:c2:33:ad:35:75:3f:2c:09:01:51:a4:6c:fc:83:
                    ab:07:82:8e:fd:09:4b:df:9f:21:55:bf:d2:ec:5e:
                    2b:d3:9b:48:45:a9:b0:62:73:34:63:7a:fb:81:b8:
                    03:2a:92:c8:4a:91:7c:c2:3f:93:6c:49:97:27:9a:
                    ef:b5:ae:40:9d:b2:f2:10:e7:1a:e7:67:e9:8c:51:
                    26:58:62:f3:76:62:0d:da:17:12:98:cb:d2:0a:56:
                    42:52:80:81:02:b4:d0:07:8a:7a:62:fb:b0:b9:ac:
                    62:78:2f:bf:7d:75:0c:87:2b:18:76:c5:17:e5:80:
                    8d:cd:47:bf:a6:ac:91:35:f8:1d:34:dc:e4:8c:0f:
                    dc:e3:83:e6:9e:d3:c8:28:82:d3:f0:62:3f:83:b9:
                    e0:da:a4:ca:65:8d:81:61:3e:18:9f:9f:76:f6:15:
                    fb:b3:2d:81:38:87:f7:f2:32:d8:9f:af:1f:43:d2:
                    31:8d:77:b8:8f:79:d8:ae:95:16:ce:96:32:6a:5b:
                    3e:27:f7:67:7e:8b:12:67:36:cd:b0:36:65:78:5d:
                    80:66:bf:8f:b2:88:70:8f:1a:aa:ba:0b:9c:3d:09:
                    12:c7:ed:a1:d0:40:91:b1:38:3d:96:fb:1f:58:22:
                    86:e1:03:22:1a:98:0e:8a:ab:9d:64:09:4b:51:69:
                    35:5d
                Exponent: 65537 (0x10001)
        X509v3 extensions:
            X509v3 Subject Alternative Name: 
                IP Address:<invalid>, email:walter.oconner@va.gov
            Authority Information Access: 
                CA Issuers - URI:http://aia1.com-strong-id.net/CA/CT-PUBLIC-ICA-1.p7c
                CA Issuers - URI:ldap://dir1.com-strong-id.net/cn=Cybertrust Public Issuing CA 1,ou=PKI,ou=Services,o=Cybertrust, c=US?cACertificate

            X509v3 Key Usage: critical
                Digital Signature, Key Encipherment
            X509v3 Extended Key Usage: 
                Any Extended Key Usage, TLS Web Server Authentication, TLS Web Client Authentication
            X509v3 Authority Key Identifier: 
                keyid:54:9C:81:46:0A:16:CA:FF:60:F9:EA:8A:45:0A:75:5C:4E:B2:DE:8A

            X509v3 CRL Distribution Points: 

                Full Name:
                  URI:http://cdp1.com-strong-id.net/CDP/CT-PUBLIC-I-CA-1.crl

                Full Name:
                  URI:ldap://dir1.ssp-strong-id.net/cn%3dCybertrust%20Public%20Issuing%20CA%201,ou%3dPKI,ou%3dServices,o%3dCybertrust%20Inc,c%3dUS?certificateRevocationList

            X509v3 Subject Key Identifier: 
                21:26:4C:AC:7D:19:F7:98:C1:D6:8E:B9:F9:2D:C2:04:5E:30:D3:39
    Signature Algorithm: sha1WithRSAEncryption
         a2:33:84:33:b6:9a:17:80:0e:f6:13:3f:de:d0:5e:60:20:34:
         a6:c3:4e:cc:39:0a:c7:95:25:1e:f1:e3:dd:cc:3c:b5:9f:05:
         91:85:f1:70:8e:ed:27:f5:56:3d:4f:7d:2e:df:82:3b:58:48:
         46:4f:ca:2a:19:4e:6c:09:41:f5:66:d9:91:78:0b:2b:bf:5a:
         40:33:b1:a0:9c:3b:02:b7:24:77:ea:9f:6f:41:2b:d1:32:aa:
         ff:07:4c:19:86:7b:c9:48:8f:1d:c5:74:6f:b8:11:1d:a1:ae:
         bc:86:35:75:e6:5d:f3:8b:8b:a6:f6:41:31:45:16:79:5b:b2:
         3b:bf:63:5d:15:91:18:67:b2:3a:eb:2c:60:a8:88:1b:21:d6:
         17:b9:2f:32:4d:5f:ee:4a:31:b6:23:90:69:b6:20:47:2c:75:
         62:f3:c1:9b:42:d9:fd:b3:a3:17:74:78:80:38:66:85:fe:2f:
         8f:3a:2e:6f:03:a4:44:06:78:e9:79:ee:93:fa:e4:3f:c0:64:
         1a:18:7b:53:6c:4d:b7:6c:4c:41:e1:5d:f5:d8:b0:98:1a:b5:
         ef:b2:a6:0c:29:df:31:cc:1c:fe:7a:fc:02:36:07:9e:b4:ca:
         91:3e:ff:0d:b0:b5:e7:f8:17:49:94:31:0d:ca:e5:1d:ca:01:
         b0:24:1f:7a
-----BEGIN CERTIFICATE-----
MIIGHjCCBQagAwIBAgIDAipMMA0GCSqGSIb3DQEBBQUAMHAxCzAJBgNVBAYTAlVT
MRcwFQYDVQQKEw5DeWJlcnRydXN0IEluYzERMA8GA1UECxMIU2VydmljZXMxDDAK
BgNVBAsTA1BLSTEnMCUGA1UEAxMeQ3liZXJ0cnVzdCBQdWJsaWMgSXNzdWluZyBD
QSAxMB4XDTEyMDYyMTIwMzkzMFoXDTEzMDYyMTIwMzkzMFowgcUxEzARBgoJkiaJ
k/IsZAEZFgNnb3YxEjAQBgoJkiaJk/IsZAEZFgJ2YTEWMBQGA1UECBMNV2VzdCBW
aXJnaW5pYTEXMBUGA1UEBxMORmFsbGluZyBXYXRlcnMxKjAoBgNVBAoTIVVTIERl
cGFydG1lbnQgb2YgVmV0ZXJhbnMgQWZmYWlyczEjMCEGA1UECxMaQ2FwaXRvbCBS
ZWdpb24gRGF0YSBDZW50ZXIxGDAWBgNVBAMTD3d3dy52YWx1LnZhLmdvdjCCASIw
DQYJKoZIhvcNAQEBBQADggEPADCCAQoCggEBAMIzrTV1PywJAVGkbPyDqweCjv0J
S9+fIVW/0uxeK9ObSEWpsGJzNGN6+4G4AyqSyEqRfMI/k2xJlyea77WuQJ2y8hDn
Gudn6YxRJlhi83ZiDdoXEpjL0gpWQlKAgQK00AeKemL7sLmsYngvv311DIcrGHbF
F+WAjc1Hv6askTX4HTTc5IwP3OOD5p7TyCiC0/BiP4O54NqkymWNgWE+GJ+fdvYV
+7MtgTiH9/Iy2J+vH0PSMY13uI952K6VFs6WMmpbPif3Z36LEmc2zbA2ZXhdgGa/
j7KIcI8aqroLnD0JEsftodBAkbE4PZb7H1gihuEDIhqYDoqrnWQJS1FpNV0CAwEA
AaOCAmkwggJlMCoGA1UdEQQjMCGHCAAAAAD///8AgRV3YWx0ZXIub2Nvbm5lckB2
YS5nb3YwgdMGCCsGAQUFBwEBBIHGMIHDMEAGCCsGAQUFBzAChjRodHRwOi8vYWlh
MS5jb20tc3Ryb25nLWlkLm5ldC9DQS9DVC1QVUJMSUMtSUNBLTEucDdjMH8GCCsG
AQUFBzAChnNsZGFwOi8vZGlyMS5jb20tc3Ryb25nLWlkLm5ldC9jbj1DeWJlcnRy
dXN0IFB1YmxpYyBJc3N1aW5nIENBIDEsb3U9UEtJLG91PVNlcnZpY2VzLG89Q3li
ZXJ0cnVzdCwgYz1VUz9jQUNlcnRpZmljYXRlMA4GA1UdDwEB/wQEAwIFoDAjBgNV
HSUEHDAaBgRVHSUABggrBgEFBQcDAQYIKwYBBQUHAwIwHwYDVR0jBBgwFoAUVJyB
RgoWyv9g+eqKRQp1XE6y3oowgesGA1UdHwSB4zCB4DA8oDqgOIY2aHR0cDovL2Nk
cDEuY29tLXN0cm9uZy1pZC5uZXQvQ0RQL0NULVBVQkxJQy1JLUNBLTEuY3JsMIGf
oIGcoIGZhoGWbGRhcDovL2RpcjEuc3NwLXN0cm9uZy1pZC5uZXQvY24lM2RDeWJl
cnRydXN0JTIwUHVibGljJTIwSXNzdWluZyUyMENBJTIwMSxvdSUzZFBLSSxvdSUz
ZFNlcnZpY2VzLG8lM2RDeWJlcnRydXN0JTIwSW5jLGMlM2RVUz9jZXJ0aWZpY2F0
ZVJldm9jYXRpb25MaXN0MB0GA1UdDgQWBBQhJkysfRn3mMHWjrn5LcIEXjDTOTAN
BgkqhkiG9w0BAQUFAAOCAQEAojOEM7aaF4AO9hM/3tBeYCA0psNOzDkKx5UlHvHj
3cw8tZ8FkYXxcI7tJ/VWPU99Lt+CO1hIRk/KKhlObAlB9WbZkXgLK79aQDOxoJw7
Arckd+qfb0Er0TKq/wdMGYZ7yUiPHcV0b7gRHaGuvIY1deZd84uLpvZBMUUWeVuy
O79jXRWRGGeyOussYKiIGyHWF7kvMk1f7koxtiOQabYgRyx1YvPBm0LZ/bOjF3R4
gDhmhf4vjzoubwOkRAZ46Xnuk/rkP8BkGhh7U2xNt2xMQeFd9diwmBq177KmDCnf
Mcwc/nr8AjYHnrTKkT7/DbC15/gXSZQxDcrlHcoBsCQfeg==
-----END CERTIFICATE-----
