Certificate:
    Data:
        Version: 3 (0x2)
        Serial Number: 1 (0x1)
    Signature Algorithm: sha1WithRSAEncryption
        Issuer: OU=3a6adf29-3eae-4e05-be57-df9c2f630c75, O=March Networks, CN=March Networks Platform Certificate Authority
        Validity
            Not Before: Jan  1 00:00:00 2000 GMT
            Not After : Jan  1 00:00:00 2030 GMT
        Subject: OU=3a6adf29-3eae-4e05-be57-df9c2f630c75, O=March Networks, CN=March Networks Platform Certificate Authority
        Subject Public Key Info:
            Public Key Algorithm: rsaEncryption
                Public-Key: (1024 bit)
                Modulus:
                    00:cf:37:a6:bb:c5:7c:23:31:96:84:ab:4b:98:df:
                    13:98:b6:39:da:30:e4:d8:22:57:f5:2f:fc:fd:bd:
                    f2:1f:4a:81:ac:4d:cf:b2:2b:75:85:aa:15:71:7a:
                    6d:ba:d4:84:53:ce:75:2f:bc:71:f7:07:7d:ed:6e:
                    eb:1a:06:43:31:e4:a2:10:6b:c1:67:77:c2:f4:80:
                    f3:3a:cd:fa:d8:fd:39:b8:f3:e4:db:22:a0:e9:78:
                    8e:04:d5:68:65:d1:bb:d4:8e:4b:c3:20:18:0c:b1:
                    f6:f5:aa:56:d8:f3:69:a1:24:65:3f:60:b6:e2:10:
                    bf:f9:dd:15:d9:3a:57:c1:47
                Exponent: 65537 (0x10001)
        X509v3 extensions:
            X509v3 Basic Constraints: 
                CA:TRUE
    Signature Algorithm: sha1WithRSAEncryption
         47:6e:de:af:c8:93:24:48:87:9a:a5:9b:b7:05:5e:1c:0f:1e:
         2a:40:dc:5f:a7:44:97:d2:65:dc:d0:cf:eb:84:78:5c:da:a8:
         5a:37:e8:04:7b:6c:fc:cf:54:7b:36:3b:ee:ce:d4:29:ce:7b:
         fc:97:ee:10:d6:4f:72:1d:13:d1:c1:3d:a5:26:05:5c:a6:4e:
         8e:9d:b8:08:8d:16:9b:72:a6:13:80:69:86:a4:9f:f8:96:8f:
         0c:cc:42:ec:b9:8e:df:30:82:7b:b5:59:c0:a6:05:1a:d8:ee:
         2d:fb:98:79:6b:75:a6:56:b4:18:1e:da:3a:55:80:bd:7b:11:
         00:de
-----BEGIN CERTIFICATE-----
MIIChDCCAe2gAwIBAgIBATANBgkqhkiG9w0BAQUFADCBgDEtMCsGA1UECxMkM2E2
YWRmMjktM2VhZS00ZTA1LWJlNTctZGY5YzJmNjMwYzc1MRcwFQYDVQQKEw5NYXJj
aCBOZXR3b3JrczE2MDQGA1UEAxMtTWFyY2ggTmV0d29ya3MgUGxhdGZvcm0gQ2Vy
dGlmaWNhdGUgQXV0aG9yaXR5MBoXCzAwMDEwMTAwMDBaFwszMDAxMDEwMDAwWjCB
gDEtMCsGA1UECxMkM2E2YWRmMjktM2VhZS00ZTA1LWJlNTctZGY5YzJmNjMwYzc1
MRcwFQYDVQQKEw5NYXJjaCBOZXR3b3JrczE2MDQGA1UEAxMtTWFyY2ggTmV0d29y
a3MgUGxhdGZvcm0gQ2VydGlmaWNhdGUgQXV0aG9yaXR5MIGfMA0GCSqGSIb3DQEB
AQUAA4GNADCBiQKBgQDPN6a7xXwjMZaEq0uY3xOYtjnaMOTYIlf1L/z9vfIfSoGs
Tc+yK3WFqhVxem261IRTznUvvHH3B33tbusaBkMx5KIQa8Fnd8L0gPM6zfrY/Tm4
8+TbIqDpeI4E1Whl0bvUjkvDIBgMsfb1qlbY82mhJGU/YLbiEL/53RXZOlfBRwID
AQABoxAwDjAMBgNVHRMEBTADAQH/MA0GCSqGSIb3DQEBBQUAA4GBAEdu3q/IkyRI
h5qlm7cFXhwPHipA3F+nRJfSZdzQz+uEeFzaqFo36AR7bPzPVHs2O+7O1CnOe/yX
7hDWT3IdE9HBPaUmBVymTo6duAiNFptyphOAaYakn/iWjwzMQuy5jt8wgnu1WcCm
BRrY7i37mHlrdaZWtBge2jpVgL17EQDe
-----END CERTIFICATE-----
