Certificate:
    Data:
        Version: 3 (0x2)
        Serial Number: 0 (0x0)
    Signature Algorithm: sha1WithRSAEncryption
        Issuer: CN=MatrixSSL Sample Server CA, C=US, ST=WA, L=Bellevue, O=Peersec Networks, OU=Test
        Validity
            Not Before: Mar 13 08:13:34 2006 GMT
            Not After : Mar 13 08:13:34 2007 GMT
        Subject: CN=MatrixSSL Sample Server Cert, C=US, ST=WA, L=Bellevue, O=PeerSec Networks, OU=Test
        Subject Public Key Info:
            Public Key Algorithm: rsaEncryption
                Public-Key: (1024 bit)
                Modulus:
                    00:ac:b2:45:c7:7e:95:57:1c:a6:4a:03:67:7a:93:
                    49:7c:d4:36:5a:1e:91:52:87:b7:9f:a6:1a:92:1b:
                    4f:58:25:c7:46:f1:b0:34:1a:fa:94:ea:ad:e5:b6:
                    64:72:ca:8c:d8:59:14:60:c0:1d:21:5d:c3:4e:f3:
                    17:01:53:94:7f:da:b4:62:cd:bb:a0:80:e7:cb:fd:
                    21:d8:3f:2f:55:e8:63:21:27:18:ac:ca:e6:c4:f5:
                    0b:b9:5b:a8:bc:55:b8:ab:e5:4c:bb:ee:6f:32:9e:
                    d4:db:d8:f4:cc:e1:df:9f:fc:5e:eb:ce:d7:ec:38:
                    f2:68:c7:75:f5:e0:9c:1e:21
                Exponent: 65537 (0x10001)
        X509v3 extensions:
            X509v3 Basic Constraints: critical
                CA:FALSE
    Signature Algorithm: sha1WithRSAEncryption
         57:e9:1d:1a:2d:6f:da:82:4b:a0:db:39:7b:90:ec:6c:b0:2c:
         e2:da:5e:79:0a:8e:a8:1a:7a:3e:f6:de:17:93:62:0c:56:92:
         14:fe:06:ac:f1:1c:27:41:18:c5:87:0d:4c:d3:6c:96:a1:bc:
         58:12:1d:f6:59:12:5d:a2:66:3b:54:d0:77:9b:bd:d5:84:c5:
         fd:d3:d7:cf:fa:6f:dd:e2:c8:49:37:00:77:e6:86:67:f0:96:
         4f:8e:69:3d:34:1f:d9:1a:fc:4a:e9:99:34:5a:db:55:17:f2:
         95:be:ee:7f:fd:1f:34:6d:2b:67:04:0e:1c:02:13:fb:17:25:
         2e:82
-----BEGIN CERTIFICATE-----
MIICgjCCAeugAwIBAgIBADANBgkqhkiG9w0BAQUFADB8MSMwIQYDVQQDDBpNYXRy
aXhTU0wgU2FtcGxlIFNlcnZlciBDQTELMAkGA1UEBgwCVVMxCzAJBgNVBAgMAldB
MREwDwYDVQQHDAhCZWxsZXZ1ZTEZMBcGA1UECgwQUGVlcnNlYyBOZXR3b3JrczEN
MAsGA1UECwwEVGVzdDAeFw0wNjAzMTMwODEzMzRaFw0wNzAzMTMwODEzMzRaMH4x
JTAjBgNVBAMMHE1hdHJpeFNTTCBTYW1wbGUgU2VydmVyIENlcnQxCzAJBgNVBAYM
AlVTMQswCQYDVQQIDAJXQTERMA8GA1UEBwwIQmVsbGV2dWUxGTAXBgNVBAoMEFBl
ZXJTZWMgTmV0d29ya3MxDTALBgNVBAsMBFRlc3QwgZ4wDQYJKoZIhvcNAQEBBQAD
gYwAMIGIAoGArLJFx36VVxymSgNnepNJfNQ2Wh6RUoe3n6YakhtPWCXHRvGwNBr6
lOqt5bZkcsqM2FkUYMAdIV3DTvMXAVOUf9q0Ys27oIDny/0h2D8vVehjIScYrMrm
xPULuVuovFW4q+VMu+5vMp7U29j0zOHfn/xe687X7DjyaMd19eCcHiECAwEAAaMT
MBEwDwYDVR0TAQEBBAUwAwEBADANBgkqhkiG9w0BAQUFAAOBgQBX6R0aLW/agkug
2zl7kOxssCzi2l55Co6oGno+9t4Xk2IMVpIU/gas8RwnQRjFhw1M02yWobxYEh32
WRJdomY7VNB3m73VhMX909fP+m/d4shJNwB35oZn8JZPjmk9NB/ZGvxK6Zk0WttV
F/KVvu5//R80bStnBA4cAhP7FyUugg==
-----END CERTIFICATE-----
