Certificate:
    Data:
        Version: 3 (0x2)
        Serial Number:
            91:b2:7b:d8:b8:cb:2c:69:f8:92:b8:95:5a:74:3e:20
    Signature Algorithm: sha1WithRSAEncryption
        Issuer: C=GB, ST=Greater Manchester, L=Salford, O=COMODO CA Limited, CN=PositiveSSL CA 2
        Validity
            Not Before: Nov 19 00:00:00 2012 GMT
            Not After : Nov 19 23:59:59 2013 GMT
        Subject: OU=Domain Control Validated, OU=PositiveSSL, CN=ttmail.npp.co.th
        Subject Public Key Info:
            Public Key Algorithm: rsaEncryption
                Public-Key: (2048 bit)
                Modulus:
                    00:ba:ce:71:1a:7e:40:6e:a8:c8:c1:e8:e9:d3:b4:
                    8f:7b:79:f5:2f:c9:f3:49:31:6f:d6:a7:2c:5d:03:
                    57:08:86:5e:e2:70:b4:12:68:43:71:3f:7e:1f:73:
                    30:ba:57:e2:90:3a:c3:ba:93:4a:72:98:07:83:f9:
                    f5:49:64:b3:7e:37:a4:cd:d3:ba:62:7a:06:49:cb:
                    0c:3a:b3:82:5b:5f:d8:69:b4:a4:3d:b1:67:a9:48:
                    fc:a2:8f:56:5d:8e:02:cf:89:ba:a9:26:a1:1c:3e:
                    e8:46:a5:cf:4e:c9:1e:62:6d:78:52:c3:47:8d:3a:
                    0d:33:cb:19:0a:a0:be:c7:39:99:10:fa:0e:37:89:
                    89:07:09:1d:09:47:21:e4:fb:02:6d:4a:cc:98:16:
                    ca:f9:a0:be:2e:94:6d:cb:77:42:55:64:80:d8:00:
                    7f:6e:f5:1c:32:e7:24:af:c2:1e:20:01:d2:5f:cc:
                    8f:9b:f1:91:16:3c:cb:cb:af:03:bd:47:b1:52:1f:
                    a4:9c:f5:df:b1:3a:2b:89:ae:62:25:a0:3e:9a:51:
                    b1:14:53:22:50:ee:52:d8:6a:c2:5b:88:c6:c1:7a:
                    35:b6:e3:d1:b0:55:ec:d8:df:e8:df:85:2a:e5:d7:
                    06:1b:f9:e6:f9:c5:3d:09:b8:68:71:47:5c:99:ae:
                    07:fd
                Exponent: 65537 (0x10001)
        X509v3 extensions:
            X509v3 Authority Key Identifier: 
                keyid:99:E4:40:5F:6B:14:5E:3E:05:D9:DD:D3:63:54:FC:62:B8:F7:00:AC

            X509v3 Subject Key Identifier: 
                3A:1E:D1:F5:0E:08:66:8A:92:B6:48:A0:35:F2:DA:0C:51:C6:1D:E6
            X509v3 Key Usage: critical
                Digital Signature, Key Encipherment
            X509v3 Basic Constraints: critical
                CA:FALSE
            X509v3 Extended Key Usage: 
                TLS Web Server Authentication, TLS Web Client Authentication
            X509v3 Certificate Policies: 
                Policy: 1.3.6.1.4.1.6449.1.2.2.7
                  CPS: http://www.positivessl.com/CPS
                Policy: 2.23.140.1.2.1

            X509v3 CRL Distribution Points: 

                Full Name:
                  URI:http://crl.comodoca.com/PositiveSSLCA2.crl

            Authority Information Access: 
                CA Issuers - URI:http://crt.comodoca.com/PositiveSSLCA2.crt
                OCSP - URI:http://ocsp.comodoca.com

            X509v3 Subject Alternative Name: 
                DNS:ttmail.npp.co.th, DNS:www.ttmail.npp.co.th
    Signature Algorithm: sha1WithRSAEncryption
         10:3f:5e:c7:50:f5:db:ac:f1:30:fe:3f:47:94:83:4e:b3:91:
         6c:92:ac:a7:22:fe:f4:4f:08:73:dc:54:f7:c9:69:14:24:ab:
         cc:aa:84:5f:aa:16:93:58:df:e3:a7:cb:e0:a8:64:5b:ac:ca:
         2d:53:74:e0:e2:55:f3:b6:c4:25:c1:fe:56:8c:9e:91:2d:c3:
         85:9d:44:04:4f:16:f9:b0:a4:bb:96:8d:d1:e1:25:87:b2:9e:
         66:15:bb:45:9d:7d:7c:51:28:46:68:94:ed:63:2a:0a:c3:4c:
         68:e8:b8:4d:4a:3f:24:d1:2d:04:f5:2b:93:ff:9b:25:d9:50:
         0c:c5:fa:c3:5f:66:e7:b3:37:cc:a0:bd:68:0b:8b:22:ed:6f:
         77:cb:ec:db:c3:17:1b:58:4e:5c:8e:9e:7d:16:2b:6b:5e:bb:
         24:f4:90:ae:d9:cb:1b:6c:c0:db:bf:cb:99:98:cc:8e:e0:1d:
         16:fc:df:9a:92:d7:a1:a0:28:c6:3e:66:9a:3d:23:52:0c:f9:
         a9:3c:e3:a3:1a:5c:84:e2:60:1e:7a:3f:76:1e:eb:71:13:d8:
         77:12:07:22:d6:01:a0:37:29:ca:ad:88:5c:7d:ac:d0:1c:24:
         d4:95:39:24:2e:52:98:3c:60:2f:b1:7d:ac:e5:62:ec:ac:a6:
         19:5f:86:1c
-----BEGIN CERTIFICATE-----
MIIFBTCCA+2gAwIBAgIRAJGye9i4yyxp+JK4lVp0PiAwDQYJKoZIhvcNAQEFBQAw
czELMAkGA1UEBhMCR0IxGzAZBgNVBAgTEkdyZWF0ZXIgTWFuY2hlc3RlcjEQMA4G
A1UEBxMHU2FsZm9yZDEaMBgGA1UEChMRQ09NT0RPIENBIExpbWl0ZWQxGTAXBgNV
BAMTEFBvc2l0aXZlU1NMIENBIDIwHhcNMTIxMTE5MDAwMDAwWhcNMTMxMTE5MjM1
OTU5WjBUMSEwHwYDVQQLExhEb21haW4gQ29udHJvbCBWYWxpZGF0ZWQxFDASBgNV
BAsTC1Bvc2l0aXZlU1NMMRkwFwYDVQQDExB0dG1haWwubnBwLmNvLnRoMIIBIjAN
BgkqhkiG9w0BAQEFAAOCAQ8AMIIBCgKCAQEAus5xGn5AbqjIwejp07SPe3n1L8nz
STFv1qcsXQNXCIZe4nC0EmhDcT9+H3MwulfikDrDupNKcpgHg/n1SWSzfjekzdO6
YnoGScsMOrOCW1/YabSkPbFnqUj8oo9WXY4Cz4m6qSahHD7oRqXPTskeYm14UsNH
jToNM8sZCqC+xzmZEPoON4mJBwkdCUch5PsCbUrMmBbK+aC+LpRty3dCVWSA2AB/
bvUcMuckr8IeIAHSX8yPm/GRFjzLy68DvUexUh+knPXfsToria5iJaA+mlGxFFMi
UO5S2GrCW4jGwXo1tuPRsFXs2N/o34Uq5dcGG/nm+cU9CbhocUdcma4H/QIDAQAB
o4IBsTCCAa0wHwYDVR0jBBgwFoAUmeRAX2sUXj4F2d3TY1T8Yrj3AKwwHQYDVR0O
BBYEFDoe0fUOCGaKkrZIoDXy2gxRxh3mMA4GA1UdDwEB/wQEAwIFoDAMBgNVHRMB
Af8EAjAAMB0GA1UdJQQWMBQGCCsGAQUFBwMBBggrBgEFBQcDAjBQBgNVHSAESTBH
MDsGCysGAQQBsjEBAgIHMCwwKgYIKwYBBQUHAgEWHmh0dHA6Ly93d3cucG9zaXRp
dmVzc2wuY29tL0NQUzAIBgZngQwBAgEwOwYDVR0fBDQwMjAwoC6gLIYqaHR0cDov
L2NybC5jb21vZG9jYS5jb20vUG9zaXRpdmVTU0xDQTIuY3JsMGwGCCsGAQUFBwEB
BGAwXjA2BggrBgEFBQcwAoYqaHR0cDovL2NydC5jb21vZG9jYS5jb20vUG9zaXRp
dmVTU0xDQTIuY3J0MCQGCCsGAQUFBzABhhhodHRwOi8vb2NzcC5jb21vZG9jYS5j
b20wMQYDVR0RBCowKIIQdHRtYWlsLm5wcC5jby50aIIUd3d3LnR0bWFpbC5ucHAu
Y28udGgwDQYJKoZIhvcNAQEFBQADggEBABA/XsdQ9dus8TD+P0eUg06zkWySrKci
/vRPCHPcVPfJaRQkq8yqhF+qFpNY3+Ony+CoZFusyi1TdODiVfO2xCXB/laMnpEt
w4WdRARPFvmwpLuWjdHhJYeynmYVu0WdfXxRKEZolO1jKgrDTGjouE1KPyTRLQT1
K5P/myXZUAzF+sNfZuezN8ygvWgLiyLtb3fL7NvDFxtYTlyOnn0WK2teuyT0kK7Z
yxtswNu/y5mYzI7gHRb835qS16GgKMY+Zpo9I1IM+ak846MaXITiYB56P3Ye63ET
2HcSByLWAaA3KcqtiFx9rNAcJNSVOSQuUpg8YC+xfazlYuysphlfhhw=
-----END CERTIFICATE-----
