Certificate:
    Data:
        Version: 3 (0x2)
        Serial Number:
            67:68:e9:86:7b:f2:f9:2b:66:b0:7d:38:46:a9:b3:8d
    Signature Algorithm: sha1WithRSAEncryption
        Issuer: C=ch, O=Swisscom, OU=Digital Certificate Services, CN=Swisscom Rubin CA 1
        Validity
            Not Before: Jun 16 07:05:23 2010 GMT
            Not After : Jun 16 07:05:23 2013 GMT
        Subject: C=CH, ST=Bern, L=Liebefeld, O=Swisscom Mobile AG, OU=MC-TO-NSD-SYI-UNS, CN=www.m-budget-mobile-abo.ch
        Subject Public Key Info:
            Public Key Algorithm: rsaEncryption
                Public-Key: (2048 bit)
                Modulus:
                    00:f2:c9:ab:45:ec:59:9a:fe:9b:14:68:f7:77:cb:
                    ec:7e:9a:3e:7e:92:4b:46:03:e9:c9:a3:ec:7c:5f:
                    e4:1c:ee:6c:bd:cd:0d:8f:f4:3e:c9:d1:df:4d:43:
                    ec:ff:ed:47:47:a6:53:e1:58:40:85:25:fd:51:c2:
                    95:09:cb:6a:0d:2b:4f:4b:30:74:84:3d:ce:94:f4:
                    0c:52:9b:05:82:46:e2:eb:50:b2:f2:99:9f:ba:8f:
                    bb:5e:81:d5:5f:b7:10:67:05:ea:aa:d6:d0:0c:63:
                    fa:68:25:f8:9b:e6:2e:97:6d:a5:15:cc:1f:20:21:
                    35:94:39:47:51:d7:b0:f1:16:fa:4d:17:ae:41:75:
                    0b:4c:2a:05:35:f2:22:1a:c2:f8:2a:4d:aa:6d:a2:
                    41:4e:3a:4d:9d:43:26:05:ba:77:97:48:6c:de:b2:
                    3b:92:c2:e1:06:62:54:1d:08:53:41:bd:a9:58:91:
                    80:8c:b8:42:fd:a1:b5:9f:9c:22:ba:18:cb:71:11:
                    65:18:11:5c:55:9b:81:5b:4e:68:35:6a:eb:70:bc:
                    e8:80:bd:03:f5:bc:76:4f:e3:85:f1:f3:a6:eb:df:
                    fb:da:78:0e:93:51:91:fa:7f:aa:3b:b0:17:8b:a9:
                    6d:31:30:ba:9d:33:51:b4:0e:04:6f:c7:f4:e0:85:
                    2a:43
                Exponent: 65537 (0x10001)
        X509v3 extensions:
            X509v3 Authority Key Identifier: 
                keyid:2D:C2:A7:A3:63:3E:3F:83:47:AB:48:33:36:81:85:F7:D4:E9:AC:C0

            Authority Information Access: 
                OCSP - URI:http://ocsp.swissdigicert.ch/rubin
                CA Issuers - URI:http://www.swissdigicert.ch/download

            X509v3 Certificate Policies: 
                Policy: 2.16.756.1.83.4
                  CPS: http://www.swissdigicert.ch/documents

            X509v3 CRL Distribution Points: 

                Full Name:
                  URI:ldap://ldap.swissdigicert.ch/CN=Swisscom Rubin CA 1,dc=rubin,dc=swissdigicert,dc=ch?certificateRevocationList?

                Full Name:
                  URI:http://www.swissdigicert.ch/download/sdcs-rubin.crl

            X509v3 Extended Key Usage: 
                TLS Web Server Authentication, TLS Web Client Authentication, Netscape Server Gated Crypto
            X509v3 Key Usage: critical
                Digital Signature, Non Repudiation, Key Encipherment, Data Encipherment
            X509v3 Extended Key Usage: 
                TLS Web Server Authentication
            S/MIME Capabilities: 
                0i0...*.H........0...*.H........0...`.H.e...*0...`.H.e...-0...`.H.e....0...`.H.e....0...+....0
..*.H....
            X509v3 Subject Key Identifier: 
                00:3F:6A:20:2D:F3:91:47:1F:9D:87:1E:86:1E:76:97:03:62:63:D9
    Signature Algorithm: sha1WithRSAEncryption
         6b:9b:4f:4a:73:32:cc:10:88:12:f8:9c:9e:4f:65:38:b9:5d:
         74:4c:8f:e7:86:6b:95:74:25:d6:5b:d7:4b:61:2f:87:44:ad:
         47:a0:41:80:98:0d:69:9e:e6:7e:81:95:86:7d:33:44:42:45:
         a8:99:1f:c1:47:09:72:e6:19:d5:d5:81:7a:2b:db:fa:6b:d7:
         fa:78:57:7e:d1:1f:aa:9f:bf:dd:03:7c:ac:8c:6b:07:2f:e8:
         2f:6d:7d:82:7a:77:c6:ab:9d:11:f2:91:0f:eb:ed:8e:f7:5f:
         c5:1e:b4:c8:5f:f4:15:cf:ba:d4:4c:b2:a6:ad:7d:30:3e:ca:
         0e:31:1d:7d:14:d8:c5:d5:da:47:2a:bb:b8:15:15:85:a0:2a:
         9a:48:3c:17:a7:86:f1:71:00:51:db:e3:69:4b:3e:20:08:bb:
         f5:99:86:ac:8b:cc:8a:f7:ad:20:eb:b7:36:d3:5c:12:ab:c2:
         f5:aa:29:ff:18:97:a0:e6:3e:3f:7a:da:07:4c:5e:28:34:d2:
         0c:bb:12:d8:00:ad:a0:09:45:a2:f4:29:e0:d2:d4:30:3a:7c:
         a6:48:c2:e1:16:be:31:e0:4e:f2:a4:a7:33:dc:4a:81:f8:e3:
         cf:99:9d:3f:3f:67:43:fb:3b:c2:3b:ee:e5:58:6a:46:a4:b8:
         07:0b:b2:ee
-----BEGIN CERTIFICATE-----
MIIGCDCCBPCgAwIBAgIQZ2jphnvy+StmsH04RqmzjTANBgkqhkiG9w0BAQUFADBl
MQswCQYDVQQGEwJjaDERMA8GA1UEChMIU3dpc3Njb20xJTAjBgNVBAsTHERpZ2l0
YWwgQ2VydGlmaWNhdGUgU2VydmljZXMxHDAaBgNVBAMTE1N3aXNzY29tIFJ1Ymlu
IENBIDEwHhcNMTAwNjE2MDcwNTIzWhcNMTMwNjE2MDcwNTIzWjCBjjELMAkGA1UE
BhMCQ0gxDTALBgNVBAgMBEJlcm4xEjAQBgNVBAcMCUxpZWJlZmVsZDEbMBkGA1UE
CgwSU3dpc3Njb20gTW9iaWxlIEFHMRowGAYDVQQLDBFNQy1UTy1OU0QtU1lJLVVO
UzEjMCEGA1UEAwwad3d3Lm0tYnVkZ2V0LW1vYmlsZS1hYm8uY2gwggEiMA0GCSqG
SIb3DQEBAQUAA4IBDwAwggEKAoIBAQDyyatF7Fma/psUaPd3y+x+mj5+kktGA+nJ
o+x8X+Qc7my9zQ2P9D7J0d9NQ+z/7UdHplPhWECFJf1RwpUJy2oNK09LMHSEPc6U
9AxSmwWCRuLrULLymZ+6j7tegdVftxBnBeqq1tAMY/poJfib5i6XbaUVzB8gITWU
OUdR17DxFvpNF65BdQtMKgU18iIawvgqTaptokFOOk2dQyYFuneXSGzesjuSwuEG
YlQdCFNBvalYkYCMuEL9obWfnCK6GMtxEWUYEVxVm4FbTmg1autwvOiAvQP1vHZP
44Xx86br3/vaeA6TUZH6f6o7sBeLqW0xMLqdM1G0DgRvx/TghSpDAgMBAAGjggKI
MIIChDAfBgNVHSMEGDAWgBQtwqejYz4/g0erSDM2gYX31OmswDBwBggrBgEFBQcB
AQRkMGIwLgYIKwYBBQUHMAGGImh0dHA6Ly9vY3NwLnN3aXNzZGlnaWNlcnQuY2gv
cnViaW4wMAYIKwYBBQUHMAKGJGh0dHA6Ly93d3cuc3dpc3NkaWdpY2VydC5jaC9k
b3dubG9hZDBIBgNVHSAEQTA/MD0GBmCFdAFTBDAzMDEGCCsGAQUFBwIBFiVodHRw
Oi8vd3d3LnN3aXNzZGlnaWNlcnQuY2gvZG9jdW1lbnRzMIG8BgNVHR8EgbQwgbEw
dKByoHCGbmxkYXA6Ly9sZGFwLnN3aXNzZGlnaWNlcnQuY2gvQ049U3dpc3Njb20g
UnViaW4gQ0EgMSxkYz1ydWJpbixkYz1zd2lzc2RpZ2ljZXJ0LGRjPWNoP2NlcnRp
ZmljYXRlUmV2b2NhdGlvbkxpc3Q/MDmgN6A1hjNodHRwOi8vd3d3LnN3aXNzZGln
aWNlcnQuY2gvZG93bmxvYWQvc2Rjcy1ydWJpbi5jcmwwKAYDVR0lBCEwHwYIKwYB
BQUHAwEGCCsGAQUFBwMCBglghkgBhvhCBAEwDgYDVR0PAQH/BAQDAgTwMBMGA1Ud
JQQMMAoGCCsGAQUFBwMBMHgGCSqGSIb3DQEJDwRrMGkwDgYIKoZIhvcNAwICAgCA
MA4GCCqGSIb3DQMEAgIAgDALBglghkgBZQMEASowCwYJYIZIAWUDBAEtMAsGCWCG
SAFlAwQBAjALBglghkgBZQMEAQUwBwYFKw4DAgcwCgYIKoZIhvcNAwcwHQYDVR0O
BBYEFAA/aiAt85FHH52HHoYedpcDYmPZMA0GCSqGSIb3DQEBBQUAA4IBAQBrm09K
czLMEIgS+JyeT2U4uV10TI/nhmuVdCXWW9dLYS+HRK1HoEGAmA1pnuZ+gZWGfTNE
QkWomR/BRwly5hnV1YF6K9v6a9f6eFd+0R+qn7/dA3ysjGsHL+gvbX2CenfGq50R
8pEP6+2O91/FHrTIX/QVz7rUTLKmrX0wPsoOMR19FNjF1dpHKru4FRWFoCqaSDwX
p4bxcQBR2+NpSz4gCLv1mYasi8yK960g67c201wSq8L1qin/GJeg5j4/etoHTF4o
NNIMuxLYAK2gCUWi9Cng0tQwOnymSMLhFr4x4E7ypKcz3EqB+OPPmZ0/P2dD+zvC
O+7lWGpGpLgHC7Lu
-----END CERTIFICATE-----
