Certificate:
    Data:
        Version: 3 (0x2)
        Serial Number: 80027 (0x1389b)
    Signature Algorithm: sha1WithRSAEncryption
        Issuer: C=US, O=U.S. Government, OU=DoD, OU=PKI, CN=DOD CA-22
        Validity
            Not Before: Jun 21 17:31:59 2011 GMT
            Not After : Jun 21 17:31:59 2014 GMT
        Subject: C=US, O=U.S. Government, OU=DoD, OU=PKI, OU=USAF, CN=spires.wpafb.af.mil
        Subject Public Key Info:
            Public Key Algorithm: rsaEncryption
                Public-Key: (2048 bit)
                Modulus:
                    00:d2:34:ba:91:5b:a0:7a:93:09:70:24:96:28:b8:
                    2e:b9:e3:0c:89:67:02:90:c4:3d:d4:7e:30:6c:63:
                    c0:c0:12:77:a2:5a:a0:d1:e9:53:9d:01:61:48:44:
                    a0:df:fa:80:6d:c9:3b:fc:94:a4:03:2e:41:07:b5:
                    fe:c0:7e:67:6b:24:8c:49:90:94:0e:05:8e:c6:3f:
                    cf:80:9c:4c:8e:da:21:33:74:33:ed:76:9d:c6:c1:
                    3b:89:a9:1c:27:62:f7:2e:cf:20:c4:64:88:de:90:
                    6d:f1:de:ab:d9:c3:f0:35:49:e4:85:83:43:d2:68:
                    5e:0c:73:76:4a:98:26:2c:35:b5:f3:10:35:a3:6f:
                    3f:6e:09:46:90:2b:73:7e:d9:49:2d:cf:cd:09:b7:
                    2f:41:70:02:06:df:1d:5b:1d:b0:d8:0f:a7:f0:e5:
                    b6:bb:b4:8a:be:a5:3e:ab:39:3b:67:db:3c:d6:e2:
                    47:27:62:72:30:db:d0:33:7e:41:27:7a:4e:9f:00:
                    88:f6:7e:02:c2:3b:78:aa:12:96:5e:a6:b5:75:0c:
                    ff:dc:0b:19:58:04:3a:98:1b:16:95:b2:af:6f:bc:
                    47:b6:20:b7:83:bd:cd:90:b4:31:28:4b:c1:97:9b:
                    56:b7:2e:d9:4f:88:05:af:f0:78:e4:44:58:3f:49:
                    17:65
                Exponent: 65537 (0x10001)
        X509v3 extensions:
            X509v3 Authority Key Identifier: 
                keyid:28:30:1F:51:51:8E:D5:DD:AD:A1:CB:20:C2:58:15:46:30:A6:44:4F

            X509v3 Subject Key Identifier: 
                FE:A3:F0:33:C2:A2:A8:01:1C:DD:DD:19:03:27:B5:4A:0D:E8:7F:0E
            Authority Information Access: 
                CA Issuers - URI:http://crl.disa.mil/sign/DODCA_22.cer
                OCSP - URI:http://ocsp.disa.mil

            X509v3 Key Usage: critical
                Digital Signature, Key Encipherment
            X509v3 CRL Distribution Points: 

                Full Name:
                  URI:http://crl.disa.mil/crl/DODCA_22.crl

                Full Name:
                  URI:ldap://crl.gds.disa.mil/cn%3dDOD%20CA-22%2cou%3dPKI%2cou%3dDoD%2co%3dU.S.%20Government%2cc%3dUS?certificaterevocationlist;binary

            X509v3 Subject Alternative Name: 
                DNS:spires.wpafb.af.mil, DirName:/C=US/O=U.S. Government/OU=DoD/OU=PKI/OU=USAF/CN=spires.wpafb.af.mil, IP Address:129.48.105.104, URI:spires.wpafb.af.mil
            X509v3 Certificate Policies: 
                Policy: 2.16.840.1.101.2.1.11.5
                Policy: 2.16.840.1.101.2.1.11.18

            X509v3 Extended Key Usage: 
                TLS Web Server Authentication, TLS Web Client Authentication, 1.3.6.1.5.5.8.2.2, Any Extended Key Usage
    Signature Algorithm: sha1WithRSAEncryption
         92:27:16:4d:a5:cd:99:8d:88:41:90:71:f1:96:42:4f:2b:43:
         77:52:ec:84:d9:1a:1e:f9:14:cd:5f:cd:01:64:56:72:f5:33:
         0d:18:d2:b5:14:bf:12:e9:45:12:1d:52:77:6b:b3:88:04:03:
         60:92:5e:01:4a:5a:4a:18:b9:41:59:7e:95:2d:ac:46:11:1f:
         c2:1f:bc:d9:43:d8:6d:de:cf:b8:d2:9c:16:df:cd:16:c2:f2:
         6b:cc:f4:8c:ad:7e:e7:bc:32:d3:9f:0d:4a:f0:a9:52:d2:52:
         a6:75:57:d5:06:ec:c0:ad:e0:35:fa:d3:4e:26:40:d4:03:0e:
         62:5f:29:0b:fd:5b:18:c6:c1:09:2c:2b:37:07:ea:af:02:e1:
         af:cf:b6:de:1c:bb:23:49:3c:68:d6:71:9b:4d:87:96:1c:e9:
         a3:20:5f:ac:f0:83:16:d2:d0:48:d8:5f:20:05:ad:61:4c:82:
         f2:c6:97:51:6f:fa:3d:e6:8e:28:5e:27:e7:29:54:fb:aa:75:
         65:e4:8a:d7:b3:f1:44:4f:55:cf:35:e0:92:13:63:fd:7f:3d:
         5e:97:1e:b5:4a:d0:50:30:f8:8a:f9:50:e8:9f:9f:4f:eb:36:
         26:c8:85:fa:ec:cc:63:a5:bd:29:1e:b8:67:1b:22:f3:f5:96:
         e7:65:21:32
-----BEGIN CERTIFICATE-----
MIIFyzCCBLOgAwIBAgIDATibMA0GCSqGSIb3DQEBBQUAMFcxCzAJBgNVBAYTAlVT
MRgwFgYDVQQKEw9VLlMuIEdvdmVybm1lbnQxDDAKBgNVBAsTA0RvRDEMMAoGA1UE
CxMDUEtJMRIwEAYDVQQDEwlET0QgQ0EtMjIwHhcNMTEwNjIxMTczMTU5WhcNMTQw
NjIxMTczMTU5WjBwMQswCQYDVQQGEwJVUzEYMBYGA1UEChMPVS5TLiBHb3Zlcm5t
ZW50MQwwCgYDVQQLEwNEb0QxDDAKBgNVBAsTA1BLSTENMAsGA1UECxMEVVNBRjEc
MBoGA1UEAxMTc3BpcmVzLndwYWZiLmFmLm1pbDCCASIwDQYJKoZIhvcNAQEBBQAD
ggEPADCCAQoCggEBANI0upFboHqTCXAklii4LrnjDIlnApDEPdR+MGxjwMASd6Ja
oNHpU50BYUhEoN/6gG3JO/yUpAMuQQe1/sB+Z2skjEmQlA4FjsY/z4CcTI7aITN0
M+12ncbBO4mpHCdi9y7PIMRkiN6QbfHeq9nD8DVJ5IWDQ9JoXgxzdkqYJiw1tfMQ
NaNvP24JRpArc37ZSS3PzQm3L0FwAgbfHVsdsNgPp/Dltru0ir6lPqs5O2fbPNbi
RydicjDb0DN+QSd6Tp8AiPZ+AsI7eKoSll6mtXUM/9wLGVgEOpgbFpWyr2+8R7Yg
t4O9zZC0MShLwZebVrcu2U+IBa/weOREWD9JF2UCAwEAAaOCAoUwggKBMB8GA1Ud
IwQYMBaAFCgwH1FRjtXdraHLIMJYFUYwpkRPMB0GA1UdDgQWBBT+o/AzwqKoARzd
3RkDJ7VKDeh/DjBjBggrBgEFBQcBAQRXMFUwMQYIKwYBBQUHMAKGJWh0dHA6Ly9j
cmwuZGlzYS5taWwvc2lnbi9ET0RDQV8yMi5jZXIwIAYIKwYBBQUHMAGGFGh0dHA6
Ly9vY3NwLmRpc2EubWlsMA4GA1UdDwEB/wQEAwIFoDCBwwYDVR0fBIG7MIG4MCqg
KKAmhiRodHRwOi8vY3JsLmRpc2EubWlsL2NybC9ET0RDQV8yMi5jcmwwgYmggYag
gYOGgYBsZGFwOi8vY3JsLmdkcy5kaXNhLm1pbC9jbiUzZERPRCUyMENBLTIyJTJj
b3UlM2RQS0klMmNvdSUzZERvRCUyY28lM2RVLlMuJTIwR292ZXJubWVudCUyY2Ml
M2RVUz9jZXJ0aWZpY2F0ZXJldm9jYXRpb25saXN0O2JpbmFyeTCBrwYDVR0RBIGn
MIGkghNzcGlyZXMud3BhZmIuYWYubWlspHIwcDELMAkGA1UEBhMCVVMxGDAWBgNV
BAoTD1UuUy4gR292ZXJubWVudDEMMAoGA1UECxMDRG9EMQwwCgYDVQQLEwNQS0kx
DTALBgNVBAsTBFVTQUYxHDAaBgNVBAMTE3NwaXJlcy53cGFmYi5hZi5taWyHBIEw
aWiGE3NwaXJlcy53cGFmYi5hZi5taWwwIwYDVR0gBBwwGjALBglghkgBZQIBCwUw
CwYJYIZIAWUCAQsSMC0GA1UdJQQmMCQGCCsGAQUFBwMBBggrBgEFBQcDAgYIKwYB
BQUIAgIGBFUdJQAwDQYJKoZIhvcNAQEFBQADggEBAJInFk2lzZmNiEGQcfGWQk8r
Q3dS7ITZGh75FM1fzQFkVnL1Mw0Y0rUUvxLpRRIdUndrs4gEA2CSXgFKWkoYuUFZ
fpUtrEYRH8IfvNlD2G3ez7jSnBbfzRbC8mvM9Iytfue8MtOfDUrwqVLSUqZ1V9UG
7MCt4DX6004mQNQDDmJfKQv9WxjGwQksKzcH6q8C4a/Ptt4cuyNJPGjWcZtNh5Yc
6aMgX6zwgxbS0EjYXyAFrWFMgvLGl1Fv+j3mjiheJ+cpVPuqdWXkitez8URPVc81
4JITY/1/PV6XHrVK0FAw+Ir5UOifn0/rNibIhfrszGOlvSkeuGcbIvP1ludlITI=
-----END CERTIFICATE-----
