Certificate:
    Data:
        Version: 3 (0x2)
        Serial Number:
            49:50:a2:9c:61:fa:32:4b:e3:25:98:d1:ca:32:bd:9d
    Signature Algorithm: sha1WithRSAEncryption
        Issuer: C=GB, ST=Greater Manchester, L=Salford, O=COMODO CA Limited, CN=COMODO Extended Validation Secure Server CA
        Validity
            Not Before: Feb 29 00:00:00 2012 GMT
            Not After : Feb 28 23:59:59 2014 GMT
        Subject: CN=www.rd.io, CN=rdio.com, CN=rd.io, CN=api.rdio.com, CN=api.rd.io/serialNumber=4586007/1.3.6.1.4.1.311.60.2.1.3=US/1.3.6.1.4.1.311.60.2.1.2=Delaware/businessCategory=Private Organization, C=US/postalCode=94103, ST=CA, L=San Francisco/street=1550 Bryant st, O=Rdio, Inc., OU=COMODO EV Multi-Domain SSL, CN=www.rdio.com
        Subject Public Key Info:
            Public Key Algorithm: rsaEncryption
                Public-Key: (2048 bit)
                Modulus:
                    00:b7:40:20:60:e7:bc:10:12:4d:54:10:2e:48:91:
                    4b:28:74:4a:66:7d:3f:39:b0:8b:04:51:b8:c5:51:
                    ff:e5:f6:f5:ad:f6:07:05:3d:57:4a:38:ce:a9:1d:
                    ed:88:60:bf:03:77:ac:17:c6:02:ed:3b:87:41:c4:
                    cb:55:ea:61:c7:40:ed:26:fd:40:4b:14:60:df:33:
                    cc:f1:e6:c1:46:cb:ae:97:5f:0d:d1:6f:ac:63:56:
                    8d:5e:99:1d:df:aa:ae:c6:f8:e0:e5:47:41:ac:0c:
                    1e:b9:e9:09:ec:e4:d2:65:c0:9e:d9:1c:bf:48:a0:
                    5e:65:25:96:b6:45:ac:23:89:2b:08:bb:fb:25:a2:
                    94:c3:1c:36:87:e1:e7:4c:06:52:04:b5:71:cf:f9:
                    a2:c4:5d:16:61:d7:a9:63:09:ea:d8:79:bb:5e:fb:
                    d5:10:84:3b:c3:13:90:f5:b0:3b:88:27:af:2e:88:
                    d9:3a:76:f7:f4:14:f6:40:82:3b:73:2f:00:07:8e:
                    d1:65:d7:d8:83:b5:30:68:ed:db:49:3d:ab:6a:e0:
                    38:30:a6:ab:ef:f3:b3:a9:cd:1a:7a:63:45:a4:b6:
                    ad:25:f8:2f:d3:b7:32:76:2b:a3:f5:fb:1d:e5:a1:
                    3f:73:c8:ac:f0:2f:4c:f7:ee:cc:99:23:24:70:d1:
                    20:1b
                Exponent: 65537 (0x10001)
        X509v3 extensions:
            X509v3 Authority Key Identifier: 
                keyid:88:44:51:FF:50:2A:69:5E:2D:88:F4:21:BA:D9:0C:F2:CE:CB:EA:7C

            X509v3 Subject Key Identifier: 
                2A:D8:C3:C6:DF:AD:82:7A:D4:D4:B6:C9:8C:7A:FC:29:E1:8F:34:F8
            X509v3 Key Usage: critical
                Digital Signature, Key Encipherment
            X509v3 Basic Constraints: critical
                CA:FALSE
            X509v3 Extended Key Usage: 
                TLS Web Server Authentication, TLS Web Client Authentication
            X509v3 Certificate Policies: 
                Policy: 1.3.6.1.4.1.6449.1.2.1.5.1
                  CPS: https://secure.comodo.com/CPS

            X509v3 CRL Distribution Points: 

                Full Name:
                  URI:http://crl.comodoca.com/COMODOExtendedValidationSecureServerCA.crl

            Authority Information Access: 
                CA Issuers - URI:http://crt.comodoca.com/COMODOExtendedValidationSecureServerCA.crt
                OCSP - URI:http://ocsp.comodoca.com

            X509v3 Subject Alternative Name: 
                DNS:www.rdio.com, DNS:api.rd.io, DNS:api.rdio.com, DNS:rd.io, DNS:rdio.com, DNS:www.rd.io
    Signature Algorithm: sha1WithRSAEncryption
         a1:5d:e1:b3:d5:15:1c:ab:96:a2:0a:3e:da:ed:32:ea:86:aa:
         27:7a:eb:ce:68:87:17:f4:72:fe:76:b2:37:51:63:02:d5:4e:
         39:d9:3a:b9:a4:0d:d3:5a:17:74:76:03:56:65:54:c4:4d:fb:
         ae:eb:2b:ea:9f:63:9b:13:7a:28:c5:72:e7:55:df:f8:b4:3c:
         3b:4e:15:1c:0f:eb:26:15:0f:6b:99:99:89:31:7c:f8:96:df:
         4f:47:3e:60:c5:f8:4c:e1:c6:95:63:5a:54:d0:10:ec:24:7c:
         52:d3:98:99:b0:97:74:2e:d8:a7:df:a7:c1:75:10:d5:d6:39:
         35:4d:be:3e:55:b4:c8:21:bf:3b:ba:f0:fa:73:2a:5d:55:8e:
         53:91:e0:48:fd:34:2c:21:d5:d5:23:34:a1:28:4c:fc:ef:a5:
         e8:57:b0:86:7b:8c:74:a9:5f:f4:f5:c1:24:ad:f5:c9:22:79:
         c8:43:76:98:19:5d:3c:c7:81:bc:47:36:26:ca:d1:48:61:f9:
         08:64:06:06:0c:8f:91:7c:aa:3e:41:94:18:56:01:6a:90:6b:
         f5:67:11:d9:ab:3d:fa:3b:53:e4:26:69:da:2a:41:de:ea:b7:
         4e:a1:13:68:46:d6:77:d9:d2:f3:c9:0d:b5:95:de:85:52:c0:
         6d:98:b7:b2
-----BEGIN CERTIFICATE-----
MIIGfzCCBWegAwIBAgIQSVCinGH6MkvjJZjRyjK9nTANBgkqhkiG9w0BAQUFADCB
jjELMAkGA1UEBhMCR0IxGzAZBgNVBAgTEkdyZWF0ZXIgTWFuY2hlc3RlcjEQMA4G
A1UEBxMHU2FsZm9yZDEaMBgGA1UEChMRQ09NT0RPIENBIExpbWl0ZWQxNDAyBgNV
BAMTK0NPTU9ETyBFeHRlbmRlZCBWYWxpZGF0aW9uIFNlY3VyZSBTZXJ2ZXIgQ0Ew
HhcNMTIwMjI5MDAwMDAwWhcNMTQwMjI4MjM1OTU5WjCCAW8xEjAQBgNVBAMTCXd3
dy5yZC5pbzERMA8GA1UEAxMIcmRpby5jb20xDjAMBgNVBAMTBXJkLmlvMRUwEwYD
VQQDEwxhcGkucmRpby5jb20xEjAQBgNVBAMTCWFwaS5yZC5pbzEQMA4GA1UEBRMH
NDU4NjAwNzETMBEGCysGAQQBgjc8AgEDEwJVUzEZMBcGCysGAQQBgjc8AgECEwhE
ZWxhd2FyZTEdMBsGA1UEDxMUUHJpdmF0ZSBPcmdhbml6YXRpb24xCzAJBgNVBAYT
AlVTMQ4wDAYDVQQREwU5NDEwMzELMAkGA1UECBMCQ0ExFjAUBgNVBAcTDVNhbiBG
cmFuY2lzY28xFzAVBgNVBAkTDjE1NTAgQnJ5YW50IHN0MRMwEQYDVQQKEwpSZGlv
LCBJbmMuMSMwIQYDVQQLExpDT01PRE8gRVYgTXVsdGktRG9tYWluIFNTTDEVMBMG
A1UEAxMMd3d3LnJkaW8uY29tMIIBIjANBgkqhkiG9w0BAQEFAAOCAQ8AMIIBCgKC
AQEAt0AgYOe8EBJNVBAuSJFLKHRKZn0/ObCLBFG4xVH/5fb1rfYHBT1XSjjOqR3t
iGC/A3esF8YC7TuHQcTLVephx0DtJv1ASxRg3zPM8ebBRsuul18N0W+sY1aNXpkd
36quxvjg5UdBrAweuekJ7OTSZcCe2Ry/SKBeZSWWtkWsI4krCLv7JaKUwxw2h+Hn
TAZSBLVxz/mixF0WYdepYwnq2Hm7XvvVEIQ7wxOQ9bA7iCevLojZOnb39BT2QII7
cy8AB47RZdfYg7UwaO3bST2rauA4MKar7/Ozqc0aemNFpLatJfgv07cydiuj9fsd
5aE/c8is8C9M9+7MmSMkcNEgGwIDAQABo4IB8zCCAe8wHwYDVR0jBBgwFoAUiERR
/1AqaV4tiPQhutkM8s7L6nwwHQYDVR0OBBYEFCrYw8bfrYJ61NS2yYx6/CnhjzT4
MA4GA1UdDwEB/wQEAwIFoDAMBgNVHRMBAf8EAjAAMB0GA1UdJQQWMBQGCCsGAQUF
BwMBBggrBgEFBQcDAjBGBgNVHSAEPzA9MDsGDCsGAQQBsjEBAgEFATArMCkGCCsG
AQUFBwIBFh1odHRwczovL3NlY3VyZS5jb21vZG8uY29tL0NQUzBTBgNVHR8ETDBK
MEigRqBEhkJodHRwOi8vY3JsLmNvbW9kb2NhLmNvbS9DT01PRE9FeHRlbmRlZFZh
bGlkYXRpb25TZWN1cmVTZXJ2ZXJDQS5jcmwwgYQGCCsGAQUFBwEBBHgwdjBOBggr
BgEFBQcwAoZCaHR0cDovL2NydC5jb21vZG9jYS5jb20vQ09NT0RPRXh0ZW5kZWRW
YWxpZGF0aW9uU2VjdXJlU2VydmVyQ0EuY3J0MCQGCCsGAQUFBzABhhhodHRwOi8v
b2NzcC5jb21vZG9jYS5jb20wTAYDVR0RBEUwQ4IMd3d3LnJkaW8uY29tgglhcGku
cmQuaW+CDGFwaS5yZGlvLmNvbYIFcmQuaW+CCHJkaW8uY29tggl3d3cucmQuaW8w
DQYJKoZIhvcNAQEFBQADggEBAKFd4bPVFRyrlqIKPtrtMuqGqid6685ohxf0cv52
sjdRYwLVTjnZOrmkDdNaF3R2A1ZlVMRN+67rK+qfY5sTeijFcudV3/i0PDtOFRwP
6yYVD2uZmYkxfPiW309HPmDF+EzhxpVjWlTQEOwkfFLTmJmwl3Qu2Kffp8F1ENXW
OTVNvj5VtMghvzu68PpzKl1VjlOR4Ej9NCwh1dUjNKEoTPzvpehXsIZ7jHSpX/T1
wSSt9ckiechDdpgZXTzHgbxHNibK0Uhh+QhkBgYMj5F8qj5BlBhWAWqQa/VnEdmr
Pfo7U+QmadoqQd7qt06hE2hG1nfZ0vPJDbWV3oVSwG2Yt7I=
-----END CERTIFICATE-----
