Certificate:
    Data:
        Version: 3 (0x2)
        Serial Number:
             (Negative)2a:2a:ba:c2:cd:b1:6a:74:80:3a:2f:b8:88:24:42
    Signature Algorithm: sha1WithRSAEncryption
        Issuer: C=US, O=DigiCert Inc, OU=www.digicert.com, CN=DigiCert Global CA
        Validity
            Not Before: Dec 12 00:00:00 2005 GMT
            Not After : Dec 11 23:59:59 2008 GMT
        Subject: C=US, ST=New York, L=New York/street=15 Metrotech Center, O=City of New York, OU=NYC DoITT, OU=Provided by DigiCert, Inc., OU=DigiCertSSL Wildcard, CN=*.nyc.gov
        Subject Public Key Info:
            Public Key Algorithm: rsaEncryption
                Public-Key: (512 bit)
                Modulus:
                    00:e2:6e:8e:8d:54:26:27:d3:28:a1:05:35:fd:96:
                    d7:ec:60:01:33:91:f8:ca:b6:91:32:d6:64:37:63:
                    d1:0f:79:8b:c2:53:d1:95:8b:8e:74:32:5d:c8:a3:
                    fe:d2:15:f1:de:d0:c5:05:de:07:6a:d3:d6:06:f2:
                    ca:4c:17:88:0b
                Exponent: 65537 (0x10001)
        X509v3 extensions:
            X509v3 Authority Key Identifier: 
                keyid:A7:C7:13:A0:7A:01:3C:9D:EF:82:48:82:48:D5:73:51:B6:12:56:2A

            X509v3 Subject Key Identifier: 
                D9:1C:8D:0F:0A:E3:36:37:76:4C:D6:6A:2E:FA:B8:BA:50:C7:E4:6C
            Authority Information Access: 
                OCSP - URI:https://ocsp.digicert.com
                CA Issuers - URI:http://www.digicert.com/CACerts/DigiCertGlobalCA.crt

            X509v3 Key Usage: critical
                Digital Signature, Key Encipherment
            X509v3 Basic Constraints: critical
                CA:FALSE
            X509v3 CRL Distribution Points: 

                Full Name:
                  URI:http://crl3.digicert.com/DigiCertGlobalCA.crl

                Full Name:
                  URI:http://crl4.digicert.com/DigiCertGlobalCA.crl

            X509v3 Certificate Policies: 
                Policy: 2.16.840.1.114412.1.3.0.1
                  CPS: http://www.digicert.com/ssl-cps-repository.htm
                  User Notice:
                    Explicit Text: 

            X509v3 Extended Key Usage: 
                TLS Web Server Authentication, TLS Web Client Authentication
    Signature Algorithm: sha1WithRSAEncryption
         84:ae:80:58:6e:cf:64:7c:73:f7:a6:2a:0a:45:f9:e9:ef:90:
         a5:50:19:76:16:04:46:f1:20:eb:6a:a6:00:6e:03:0c:64:ff:
         79:59:b1:27:2b:f2:46:f1:4d:8e:bb:4f:b1:15:39:19:ce:de:
         fb:37:b8:a7:4c:39:a2:98:77:c2:c9:d5:d7:d4:8c:66:10:53:
         c8:c6:55:2a:a7:55:61:8c:ec:e3:25:53:0f:4d:12:60:9b:c1:
         56:26:10:dc:25:29:f1:4e:a3:80:32:12:27:fb:90:99:5e:cc:
         8e:74:30:39:df:52:85:07:aa:26:b8:5f:5e:db:b6:66:d1:c4:
         26:5c:f2:51:2e:79:d7:58:44:e0:1e:63:00:2e:2c:29:7d:a1:
         2b:74:be:d5:86:76:4d:e6:99:ed:a1:f1:ec:15:82:71:ad:67:
         6f:1c:d7:28:ab:46:df:34:0c:f3:39:78:c5:1e:58:f8:2f:bb:
         50:d8:d2:42:09:69:a2:72:3c:74:8c:5b:fe:b6:6d:90:a1:9d:
         4e:1c:67:4e:99:8f:39:3e:d0:94:93:1b:16:3b:62:3b:fa:16:
         cb:a4:bc:c7:42:19:71:65:bc:03:d6:03:3b:50:d8:69:63:ec:
         1e:17:e7:b4:be:bb:68:49:4c:31:41:56:ef:e1:09:0c:cf:d5:
         64:ec:e2:9e
-----BEGIN CERTIFICATE-----
MIIGMjCCBRqgAwIBAgIQ/9XVRT0yTpWLf8XQR3fbvjANBgkqhkiG9w0BAQUFADBc
MQswCQYDVQQGEwJVUzEVMBMGA1UEChMMRGlnaUNlcnQgSW5jMRkwFwYDVQQLExB3
d3cuZGlnaWNlcnQuY29tMRswGQYDVQQDExJEaWdpQ2VydCBHbG9iYWwgQ0EwHhcN
MDUxMjEyMDAwMDAwWhcNMDgxMjExMjM1OTU5WjCB2DELMAkGA1UEBhMCVVMxETAP
BgNVBAgTCE5ldyBZb3JrMREwDwYDVQQHEwhOZXcgWW9yazEcMBoGA1UECRMTMTUg
TWV0cm90ZWNoIENlbnRlcjEZMBcGA1UEChMQQ2l0eSBvZiBOZXcgWW9yazESMBAG
A1UECxMJTllDIERvSVRUMSMwIQYDVQQLExpQcm92aWRlZCBieSBEaWdpQ2VydCwg
SW5jLjEdMBsGA1UECxMURGlnaUNlcnRTU0wgV2lsZGNhcmQxEjAQBgNVBAMUCSou
bnljLmdvdjBcMA0GCSqGSIb3DQEBAQUAA0sAMEgCQQDibo6NVCYn0yihBTX9ltfs
YAEzkfjKtpEy1mQ3Y9EPeYvCU9GVi450Ml3Io/7SFfHe0MUF3gdq09YG8spMF4gL
AgMBAAGjggM5MIIDNTAfBgNVHSMEGDAWgBSnxxOgegE8ne+CSIJI1XNRthJWKjAd
BgNVHQ4EFgQU2RyNDwrjNjd2TNZqLvq4ulDH5GwwdwYIKwYBBQUHAQEEazBpMCUG
CCsGAQUFBzABhhlodHRwczovL29jc3AuZGlnaWNlcnQuY29tMEAGCCsGAQUFBzAC
hjRodHRwOi8vd3d3LmRpZ2ljZXJ0LmNvbS9DQUNlcnRzL0RpZ2lDZXJ0R2xvYmFs
Q0EuY3J0MA4GA1UdDwEB/wQEAwIFoDAMBgNVHRMBAf8EAjAAMHMGA1UdHwRsMGow
M6AxoC+GLWh0dHA6Ly9jcmwzLmRpZ2ljZXJ0LmNvbS9EaWdpQ2VydEdsb2JhbENB
LmNybDAzoDGgL4YtaHR0cDovL2NybDQuZGlnaWNlcnQuY29tL0RpZ2lDZXJ0R2xv
YmFsQ0EuY3JsMIIBxgYDVR0gBIIBvTCCAbkwggG1BgtghkgBhv1sAQMAATCCAaQw
OgYIKwYBBQUHAgEWLmh0dHA6Ly93d3cuZGlnaWNlcnQuY29tL3NzbC1jcHMtcmVw
b3NpdG9yeS5odG0wggFkBggrBgEFBQcCAjCCAVYeggFSAEEAbgB5ACAAdQBzAGUA
IABvAGYAIAB0AGgAaQBzACAAQwBlAHIAdABpAGYAaQBjAGEAdABlACAAYwBvAG4A
cwB0AGkAdAB1AHQAZQBzACAAYQBjAGMAZQBwAHQAYQBuAGMAZQAgAG8AZgAgAHQA
aABlACAARABpAGcAaQBDAGUAcgB0ACAAQwBQAC8AQwBQAFMAIABhAG4AZAAgAHQA
aABlACAAUgBlAGwAeQBpAG4AZwAgAFAAYQByAHQAeQAgAEEAZwByAGUAZQBtAGUA
bgB0ACAAdwBoAGkAYwBoACAAbABpAG0AaQB0ACAAbABpAGEAYgBpAGwAaQB0AHkA
IABhAG4AZAAgAGEAcgBlACAAaQBuAGMAbwByAHAAbwByAGEAdABlAGQAIABoAGUA
cgBlAGkAbgAgAGIAeQAgAHIAZQBmAGUAcgBlAG4AYwBlAC4wHQYDVR0lBBYwFAYI
KwYBBQUHAwEGCCsGAQUFBwMCMA0GCSqGSIb3DQEBBQUAA4IBAQCEroBYbs9kfHP3
pioKRfnp75ClUBl2FgRG8SDraqYAbgMMZP95WbEnK/JG8U2Ou0+xFTkZzt77N7in
TDmimHfCydXX1IxmEFPIxlUqp1VhjOzjJVMPTRJgm8FWJhDcJSnxTqOAMhIn+5CZ
XsyOdDA531KFB6omuF9e27Zm0cQmXPJRLnnXWETgHmMALiwpfaErdL7VhnZN5pnt
ofHsFYJxrWdvHNcoq0bfNAzzOXjFHlj4L7tQ2NJCCWmicjx0jFv+tm2QoZ1OHGdO
mY85PtCUkxsWO2I7+hbLpLzHQhlxZbwD1gM7UNhpY+weF+e0vrtoSUwxQVbv4QkM
z9Vk7OKe
-----END CERTIFICATE-----
