Certificate:
    Data:
        Version: 3 (0x2)
        Serial Number:
            21:00:00:01:55:35:c4:39:20:11:06:29:15:32:46
    Signature Algorithm: md5WithRSAEncryption
        Issuer: C=US, ST=California, L=Milpitas, O=Promise Technology Inc., CN=Promise/emailAddress=support@promise.com
        Validity
            Not Before: Jun 29 15:32:48 2011
            Not After : Jun 26 15:32:48 2021 GMT
        Subject: C=US, ST=California, L=Milpitas, O=Promise Technology Inc., CN=207.62.80.50/emailAddress=support@promise.com
        Subject Public Key Info:
            Public Key Algorithm: rsaEncryption
                Public-Key: (512 bit)
                Modulus:
                    00:bf:47:ea:a6:57:9e:92:ed:7f:50:84:b3:d3:85:
                    d0:09:91:73:7e:00:eb:26:ba:0e:0b:7a:d7:3b:93:
                    40:dc:e2:45:02:01:ce:10:d0:8d:4e:60:a8:8a:98:
                    7c:eb:30:82:73:33:b9:27:ed:a4:59:da:6b:d3:76:
                    f3:ae:85:d0:cb
                Exponent: 65537 (0x10001)
        X509v3 extensions:
            X509v3 Subject Alternative Name: 
                IP Address:207.62.80.50
    Signature Algorithm: md5WithRSAEncryption
         32:a7:57:46:c8:bb:7b:be:a0:0b:61:f0:a2:11:9d:6b:01:ee:
         05:05:25:8d:67:c7:c7:e3:99:8c:e2:f4:91:d3:18:60:b9:89:
         3c:ef:a0:02:02:e0:00:41:5f:8e:45:11:8f:2b:b4:8b:84:ee:
         50:31:54:b1:6e:b2:cd:71:21:86
-----BEGIN CERTIFICATE-----
MIICNzCCAeGgAwIBAgIPIQAAAVU1xDkgEQYpFTJGMA0GCSqGSIb3DQEBBAUAMIGN
MQswCQYDVQQGEwJVUzETMBEGA1UECBMKQ2FsaWZvcm5pYTERMA8GA1UEBxMITWls
cGl0YXMxIDAeBgNVBAoTF1Byb21pc2UgVGVjaG5vbG9neSBJbmMuMRAwDgYDVQQD
EwdQcm9taXNlMSIwIAYJKoZIhvcNAQkBFhNzdXBwb3J0QHByb21pc2UuY29tMCIX
ETExMDYyOTE1MzI0OC0xMjAwFw0yMTA2MjYxNTMyNDhaMIGSMQswCQYDVQQGEwJV
UzETMBEGA1UECBMKQ2FsaWZvcm5pYTERMA8GA1UEBxMITWlscGl0YXMxIDAeBgNV
BAoTF1Byb21pc2UgVGVjaG5vbG9neSBJbmMuMRUwEwYDVQQDEwwyMDcuNjIuODAu
NTAxIjAgBgkqhkiG9w0BCQEWE3N1cHBvcnRAcHJvbWlzZS5jb20wXDANBgkqhkiG
9w0BAQEFAANLADBIAkEAv0fqpleeku1/UISz04XQCZFzfgDrJroOC3rXO5NA3OJF
AgHOENCNTmCoiph86zCCczO5J+2kWdpr03bzroXQywIDAQABoxMwETAPBgNVHREE
CDAGhwTPPlAyMA0GCSqGSIb3DQEBBAUAA0EAMqdXRsi7e76gC2HwohGdawHuBQUl
jWfHx+OZjOL0kdMYYLmJPO+gAgLgAEFfjkURjyu0i4TuUDFUsW6yzXEhhg==
-----END CERTIFICATE-----
