Certificate:
    Data:
        Version: 3 (0x2)
        Serial Number: 1 (0x1)
    Signature Algorithm: sha1WithRSAEncryption
        Issuer: C=US, O=subrigo.net, CN=CA-exes111.subrigo.net.41215
        Validity
            Not Before: Dec 14 09:31:07 2012
            Not After : Dec 13 09:31:07 2022 GMT
        Subject: C=US, O=subrigo.net, CN=CA-exes111.subrigo.net.41215
        Subject Public Key Info:
            Public Key Algorithm: rsaEncryption
                Public-Key: (2048 bit)
                Modulus:
                    00:cd:1c:3f:c2:bc:ff:78:a3:27:b6:bb:e6:ba:e4:
                    a0:af:e3:c5:40:b9:44:03:b3:2d:4d:8b:39:76:10:
                    ee:a1:45:e8:bb:63:72:45:ac:e7:b2:34:8b:5c:a6:
                    99:56:a4:25:5a:59:a3:12:d8:00:7e:b7:d1:f6:26:
                    b9:ce:ba:77:98:ac:78:d1:ef:d4:bd:2b:79:59:33:
                    89:18:44:c4:34:82:01:31:6d:1b:46:9f:f4:e9:47:
                    2f:f6:fb:48:98:05:aa:42:0d:23:c0:46:59:5e:4f:
                    ad:42:39:50:67:29:f0:e9:4c:44:02:62:bd:5c:3e:
                    9c:74:c0:af:aa:e1:4a:08:46:e1:95:60:f4:2b:a2:
                    fb:da:3a:63:3b:28:53:39:4f:83:60:7c:6e:34:b6:
                    70:33:41:ea:1b:bf:e9:18:38:32:dd:d1:f0:e7:ff:
                    42:20:41:ac:d5:fb:a6:ed:ee:08:d5:b4:fb:80:8e:
                    67:7f:33:f6:2f:e7:dc:7d:15:59:9c:e8:16:8f:ac:
                    81:4c:3b:9b:6d:14:f0:5a:52:2b:68:13:0b:a7:a7:
                    7d:0f:81:35:51:87:c4:c7:1a:74:6a:e2:d1:df:e3:
                    3b:f6:84:ab:5f:7b:69:50:fc:c5:fa:55:b0:e1:c7:
                    0a:a1:5d:dd:8e:c5:bf:74:5b:5a:98:2c:32:4a:4b:
                    15:4d
                Exponent: 65537 (0x10001)
        X509v3 extensions:
            X509v3 Subject Key Identifier: 
                25:F1:EA:E4:7F:CC:69:D7:D4:28:4C:2C:62:6A:26:20:07:DA:87:C7
            Authority Information Access: 
                CA Issuers - URI:http://exes111.subrigo.net:80/ca.crt

            X509v3 Authority Key Identifier: 
                keyid:25:F1:EA:E4:7F:CC:69:D7:D4:28:4C:2C:62:6A:26:20:07:DA:87:C7
                DirName:/C=US/O=subrigo.net/CN=CA-exes111.subrigo.net.41215
                serial:01

            X509v3 Basic Constraints: critical
                CA:TRUE
            X509v3 Key Usage: critical
                Certificate Sign, CRL Sign
    Signature Algorithm: sha1WithRSAEncryption
         bd:96:11:6a:ac:a7:ff:33:8f:88:c9:47:c3:b0:96:6e:fd:fd:
         f9:ba:0c:26:d5:5d:88:89:bf:9d:6a:dc:a8:00:c1:dd:dd:1e:
         dc:75:89:13:8b:17:1b:3d:27:09:3b:cd:b6:3e:a6:4d:a9:d1:
         d0:b1:5c:cd:49:aa:78:b1:e0:d2:63:87:0e:1d:80:cd:9d:8b:
         cf:e8:5d:dd:ef:36:12:c9:2c:3c:72:ab:bd:f6:20:3d:35:65:
         d6:74:d2:c7:6c:a6:78:9f:35:bc:c9:2f:d4:8d:2e:75:a2:97:
         c4:1d:a1:d5:0e:b1:01:e7:1f:2f:61:35:0b:d6:3b:01:20:6e:
         c6:45:71:85:43:e6:53:6f:2f:c2:0a:f1:c4:d0:fb:b8:d5:22:
         f4:c5:a1:8a:b9:63:7f:15:43:83:20:66:51:ff:54:92:c9:79:
         1d:68:0d:36:25:e6:81:0e:2d:bf:8e:c5:cf:e7:2d:a0:47:bd:
         3e:37:c5:d7:34:52:db:93:be:7a:b8:c4:af:e5:58:04:f1:81:
         a0:30:33:1d:01:db:fa:b8:ce:93:ec:71:85:c3:91:4b:5b:2a:
         40:70:6f:96:fe:5b:2e:09:12:79:3b:0c:59:10:d8:36:e2:0a:
         0e:e5:80:8b:e7:7a:2b:6c:20:7c:06:5f:c6:c1:46:f7:ef:63:
         a8:66:23:0c
-----BEGIN CERTIFICATE-----
MIIEDTCCAvWgAwIBAgIBATANBgkqhkiG9w0BAQUFADBKMQswCQYDVQQGEwJVUzEU
MBIGA1UEChMLc3Vicmlnby5uZXQxJTAjBgNVBAMTHENBLWV4ZXMxMTEuc3Vicmln
by5uZXQuNDEyMTUwIhcRMTIxMjE0MDkzMTA3KzAwMDAXDTIyMTIxMzA5MzEwN1ow
SjELMAkGA1UEBhMCVVMxFDASBgNVBAoTC3N1YnJpZ28ubmV0MSUwIwYDVQQDExxD
QS1leGVzMTExLnN1YnJpZ28ubmV0LjQxMjE1MIIBIjANBgkqhkiG9w0BAQEFAAOC
AQ8AMIIBCgKCAQEAzRw/wrz/eKMntrvmuuSgr+PFQLlEA7MtTYs5dhDuoUXou2Ny
RaznsjSLXKaZVqQlWlmjEtgAfrfR9ia5zrp3mKx40e/UvSt5WTOJGETENIIBMW0b
Rp/06Ucv9vtImAWqQg0jwEZZXk+tQjlQZynw6UxEAmK9XD6cdMCvquFKCEbhlWD0
K6L72jpjOyhTOU+DYHxuNLZwM0HqG7/pGDgy3dHw5/9CIEGs1fum7e4I1bT7gI5n
fzP2L+fcfRVZnOgWj6yBTDubbRTwWlIraBMLp6d9D4E1UYfExxp0auLR3+M79oSr
X3tpUPzF+lWw4ccKoV3djsW/dFtamCwySksVTQIDAQABo4H5MIH2MB0GA1UdDgQW
BBQl8erkf8xp19QoTCxiaiYgB9qHxzBABggrBgEFBQcBAQQ0MDIwMAYIKwYBBQUH
MAKGJGh0dHA6Ly9leGVzMTExLnN1YnJpZ28ubmV0OjgwL2NhLmNydDByBgNVHSME
azBpgBQl8erkf8xp19QoTCxiaiYgB9qHx6FOpEwwSjELMAkGA1UEBhMCVVMxFDAS
BgNVBAoTC3N1YnJpZ28ubmV0MSUwIwYDVQQDExxDQS1leGVzMTExLnN1YnJpZ28u
bmV0LjQxMjE1ggEBMA8GA1UdEwEB/wQFMAMBAf8wDgYDVR0PAQH/BAQDAgEGMA0G
CSqGSIb3DQEBBQUAA4IBAQC9lhFqrKf/M4+IyUfDsJZu/f35ugwm1V2Iib+datyo
AMHd3R7cdYkTixcbPScJO822PqZNqdHQsVzNSap4seDSY4cOHYDNnYvP6F3d7zYS
ySw8cqu99iA9NWXWdNLHbKZ4nzW8yS/UjS51opfEHaHVDrEB5x8vYTUL1jsBIG7G
RXGFQ+ZTby/CCvHE0Pu41SL0xaGKuWN/FUODIGZR/1SSyXkdaA02JeaBDi2/jsXP
5y2gR70+N8XXNFLbk756uMSv5VgE8YGgMDMdAdv6uM6T7HGFw5FLWypAcG+W/lsu
CRJ5OwxZENg24goO5YCL53orbCB8Bl/GwUb372OoZiMM
-----END CERTIFICATE-----
