Certificate:
    Data:
        Version: 3 (0x2)
        Serial Number:
            0a:29:8a:5e:63:49:fb:08:83:4b:6c:c9:be:0e:8b:0b:67:2f:ae:f4
    Signature Algorithm: sha1WithRSAEncryption
        Issuer: C=JP, O=Cybertrust Japan Co., Ltd., CN=Cybertrust Japan Public CA G2
        Validity
            Not Before: Mar 19 03:14:33 2012 GMT
            Not After : Mar 31 14:59:00 2015 GMT
        Subject: C=JP, ST=Tokyo, L=Chuo-ku, O=Net Dreamers Co.,Ltd., OU=Mega Media Department, CN=www.netkeiba.com
        Subject Public Key Info:
            Public Key Algorithm: rsaEncryption
                Public-Key: (2048 bit)
                Modulus:
                    00:da:da:34:dc:5e:06:76:54:62:1a:58:d7:ad:29:
                    93:d3:cf:d6:ad:8e:7d:51:66:a8:7b:f1:f8:c1:03:
                    7a:4b:97:90:29:5b:5a:2e:30:56:50:5e:51:a3:8b:
                    26:fe:43:43:ed:ab:9f:c8:3a:97:51:e3:f1:89:99:
                    29:86:ea:55:f9:53:bb:3d:e2:a9:f5:ee:72:a8:48:
                    a3:2b:8c:f6:5e:81:50:86:b0:87:e6:49:27:d4:60:
                    eb:4c:dc:e8:9f:1c:80:42:d8:81:27:f9:3a:81:54:
                    c9:57:97:e7:e2:ce:c8:e9:b6:76:69:78:89:2c:89:
                    53:08:5c:0c:0c:d9:2b:07:77:e3:f6:9c:bc:e9:6c:
                    32:99:76:b2:a5:21:e4:9a:8f:52:c7:a3:c5:88:83:
                    b0:3c:7e:af:5d:12:b8:53:20:1f:16:95:cf:88:b1:
                    89:10:d1:16:39:8d:80:b7:33:09:88:8a:2e:a6:00:
                    2e:ca:f9:a8:63:41:b4:56:4d:f8:98:0f:60:38:83:
                    ab:28:4d:90:99:54:91:dc:0b:40:df:55:29:35:9d:
                    f7:aa:f8:a6:7f:3f:7a:ac:7b:42:7a:26:63:e4:73:
                    71:65:10:4c:18:1b:07:4e:5b:b9:7b:8f:71:ca:98:
                    98:08:25:78:d6:34:2f:99:f6:4e:4a:16:a7:dd:1d:
                    e8:d9
                Exponent: 65537 (0x10001)
        X509v3 extensions:
            X509v3 Basic Constraints: 
                CA:FALSE
            X509v3 Certificate Policies: 
                Policy: 1.2.392.200081.1.1
                  User Notice:
                    Explicit Text: For more details, please visit our website https://www.cybertrust.ne.jp .
                  CPS: https://www.cybertrust.ne.jp/ssl/repository/index.html

            X509v3 Subject Alternative Name: 
                DNS:www.netkeiba.com
            X509v3 Key Usage: 
                Digital Signature, Key Encipherment
            X509v3 Extended Key Usage: 
                TLS Web Server Authentication, TLS Web Client Authentication
            X509v3 CRL Distribution Points: 

                Full Name:
                  URI:http://sureseries-crl.cybertrust.ne.jp/SureServer/ctjpubcag2/cdp.crl

    Signature Algorithm: sha1WithRSAEncryption
         30:f2:c5:cf:d9:e7:0a:a7:94:06:5e:dc:dc:c4:ac:24:93:39:
         ea:a1:c6:9d:77:3a:06:eb:d6:ad:73:2c:f0:b2:1c:92:2d:fa:
         34:12:53:07:3f:95:86:f5:3a:55:ad:be:97:4a:1d:9a:d5:e7:
         70:76:e0:16:05:50:07:42:c1:e2:e1:bb:78:c1:7f:5e:f4:30:
         4c:9d:0c:7f:8d:e9:5c:25:eb:c0:05:0b:17:24:f1:9c:f3:a7:
         62:8a:c5:d8:0e:41:ca:41:eb:22:fb:c0:af:5a:f1:34:1a:66:
         d5:25:1a:2a:d1:10:e8:d7:85:80:49:0b:33:ba:a4:cd:5b:df:
         77:c1:a9:42:cc:d4:e0:f3:cb:3b:32:78:85:82:68:05:77:c9:
         f7:d5:25:65:b3:a4:21:63:61:66:96:bd:77:24:b0:ed:cd:50:
         d0:0d:b8:fa:30:23:ee:c0:6f:03:76:64:75:6c:23:3f:ba:07:
         27:93:46:bb:65:5c:b7:77:8c:93:8d:d8:4a:a6:87:13:a0:59:
         25:84:7b:47:83:40:08:36:08:4f:5c:8a:94:d2:78:e3:52:cc:
         b7:ba:33:58:21:8a:35:4d:a6:77:f3:7e:41:a3:49:43:c1:db:
         ca:2b:af:09:91:ad:b8:09:f7:26:fa:f7:d4:7c:72:81:e7:ab:
         08:ce:ab:b1
-----BEGIN CERTIFICATE-----
MIIE3zCCA8egAwIBAgIUCimKXmNJ+wiDS2zJvg6LC2cvrvQwDQYJKoZIhvcNAQEF
BQAwWjELMAkGA1UEBhMCSlAxIzAhBgNVBAoMGkN5YmVydHJ1c3QgSmFwYW4gQ28u
LCBMdGQuMSYwJAYDVQQDDB1DeWJlcnRydXN0IEphcGFuIFB1YmxpYyBDQSBHMjAe
Fw0xMjAzMTkwMzE0MzNaFw0xNTAzMzExNDU5MDBaMIGKMQswCQYDVQQGEwJKUDEO
MAwGA1UECBMFVG9reW8xEDAOBgNVBAcTB0NodW8ta3UxHjAcBgNVBAoTFU5ldCBE
cmVhbWVycyBDby4sTHRkLjEeMBwGA1UECxMVTWVnYSBNZWRpYSBEZXBhcnRtZW50
MRkwFwYDVQQDExB3d3cubmV0a2VpYmEuY29tMIIBIjANBgkqhkiG9w0BAQEFAAOC
AQ8AMIIBCgKCAQEA2to03F4GdlRiGljXrSmT08/WrY59UWaoe/H4wQN6S5eQKVta
LjBWUF5Ro4sm/kND7aufyDqXUePxiZkphupV+VO7PeKp9e5yqEijK4z2XoFQhrCH
5kkn1GDrTNzonxyAQtiBJ/k6gVTJV5fn4s7I6bZ2aXiJLIlTCFwMDNkrB3fj9py8
6WwymXaypSHkmo9Sx6PFiIOwPH6vXRK4UyAfFpXPiLGJENEWOY2AtzMJiIoupgAu
yvmoY0G0Vk34mA9gOIOrKE2QmVSR3AtA31UpNZ33qvimfz96rHtCeiZj5HNxZRBM
GBsHTlu5e49xypiYCCV41jQvmfZOShan3R3o2QIDAQABo4IBajCCAWYwCQYDVR0T
BAIwADCBuAYDVR0gBIGwMIGtMIGqBggqgwiMmxEBATCBnTBXBggrBgEFBQcCAjBL
GklGb3IgbW9yZSBkZXRhaWxzLCBwbGVhc2UgdmlzaXQgb3VyIHdlYnNpdGUgaHR0
cHM6Ly93d3cuY3liZXJ0cnVzdC5uZS5qcCAuMEIGCCsGAQUFBwIBFjZodHRwczov
L3d3dy5jeWJlcnRydXN0Lm5lLmpwL3NzbC9yZXBvc2l0b3J5L2luZGV4Lmh0bWww
GwYDVR0RBBQwEoIQd3d3Lm5ldGtlaWJhLmNvbTALBgNVHQ8EBAMCBaAwHQYDVR0l
BBYwFAYIKwYBBQUHAwEGCCsGAQUFBwMCMFUGA1UdHwROMEwwSqBIoEaGRGh0dHA6
Ly9zdXJlc2VyaWVzLWNybC5jeWJlcnRydXN0Lm5lLmpwL1N1cmVTZXJ2ZXIvY3Rq
cHViY2FnMi9jZHAuY3JsMA0GCSqGSIb3DQEBBQUAA4IBAQAw8sXP2ecKp5QGXtzc
xKwkkznqocaddzoG69atcyzwshySLfo0ElMHP5WG9TpVrb6XSh2a1edwduAWBVAH
QsHi4bt4wX9e9DBMnQx/jelcJevABQsXJPGc86diisXYDkHKQesi+8CvWvE0GmbV
JRoq0RDo14WASQszuqTNW993walCzNTg88s7MniFgmgFd8n31SVls6QhY2Fmlr13
JLDtzVDQDbj6MCPuwG8DdmR1bCM/ugcnk0a7ZVy3d4yTjdhKpocToFklhHtHg0AI
NghPXIqU0njjUsy3ujNYIYo1TaZ3835Bo0lDwdvKK68Jka24Cfcm+vfUfHKB56sI
zqux
-----END CERTIFICATE-----
