Certificate:
    Data:
        Version: 3 (0x2)
        Serial Number: 2937139693522916239 (0x28c2d0fd5822138f)
        Signature Algorithm: sha256WithRSAEncryption
        Issuer: CN=sloppy-san-root
        Validity
            Not Before: Oct 14 00:20:19 2025 GMT
            Not After : Sep 20 00:20:19 2125 GMT
        Subject: CN=sloppy-san-root
        Subject Public Key Info:
            Public Key Algorithm: rsaEncryption
                Public-Key: (2048 bit)
                Modulus:
                    00:9e:00:38:70:8d:a7:9c:fd:89:e4:33:f9:7e:e3:
                    99:1f:19:69:a9:a3:7c:ca:8e:f4:52:ef:c8:a8:3d:
                    fc:6c:08:95:8b:14:f9:d9:a2:2b:25:7c:15:8e:aa:
                    a9:ec:19:fe:62:9f:18:33:12:72:b0:2f:37:b6:de:
                    d0:24:fe:19:ef:78:93:b7:7d:7a:44:46:4c:14:bd:
                    d7:23:a7:fc:44:43:6d:f9:29:f8:79:2a:61:fc:1f:
                    d4:79:49:19:53:5b:6d:5a:66:cd:59:a9:2b:38:c7:
                    c5:38:96:b8:12:36:c5:60:d8:dc:ea:86:df:9a:cd:
                    50:95:be:5f:1a:38:67:dc:bf:67:24:5e:ed:06:79:
                    32:b5:19:bd:11:ec:ff:61:b7:e2:32:05:8d:b6:c9:
                    12:ba:92:7c:2a:9e:26:71:b2:d0:85:95:9d:68:79:
                    d0:3e:e5:8b:ac:e8:e4:22:6d:79:a3:77:58:01:72:
                    f9:67:7d:d8:5e:7f:5c:56:45:31:36:8e:f5:be:48:
                    c4:66:f1:14:ed:38:43:ae:5f:cc:20:66:7b:48:df:
                    78:d5:f4:4f:67:2a:d4:ee:7b:36:d2:c1:5f:d1:3b:
                    e4:bb:31:0f:94:0c:19:f7:17:99:99:04:eb:b7:b4:
                    34:6c:f9:0b:8c:61:e9:a5:5b:50:62:f7:24:51:25:
                    3d:43
                Exponent: 65537 (0x10001)
        X509v3 extensions:
            X509v3 Key Usage: critical
                Digital Signature, Key Encipherment, Certificate Sign
            X509v3 Basic Constraints: critical
                CA:TRUE
            X509v3 Subject Key Identifier: 
                9A:A1:A8:3C:30:1B:EC:1F:B2:1F:10:0E:0C:42:A8:2A:B8:97:9A:8E
            X509v3 Subject Alternative Name: 
                DNS:, DNS:example.com.
    Signature Algorithm: sha256WithRSAEncryption
    Signature Value:
        4d:4f:ef:47:a0:41:96:9a:e0:98:e3:e6:5e:4f:70:6a:b1:16:
        3c:10:8b:f9:2b:12:57:58:28:88:a4:1a:e8:4c:a4:be:a0:c1:
        ad:07:95:dd:d9:bc:db:a9:db:31:5f:42:30:60:19:e2:28:fb:
        72:78:91:a7:83:e7:bd:0f:52:b8:2b:fe:d0:0e:03:64:0e:08:
        8b:62:b9:bc:30:1d:76:86:42:a6:fe:f0:55:0d:3c:16:97:32:
        3a:9f:1a:0e:5b:01:68:9d:37:76:d5:ed:a8:e5:e6:1b:7d:ff:
        b2:e3:c0:a0:8f:cb:2f:98:e5:6b:e5:b6:ef:fe:a4:c4:f8:33:
        6f:e1:90:89:16:69:58:c8:ca:95:99:d1:84:8e:0e:83:ed:a7:
        ae:ac:4e:32:7e:72:95:fa:ce:3f:62:ae:06:57:40:b2:bf:79:
        8f:b2:f6:69:07:ee:d8:7c:70:b0:52:8d:f6:08:f9:de:a8:6a:
        90:77:6a:65:52:67:82:98:32:68:66:4d:8e:6b:a8:dd:b5:3c:
        a7:fe:b4:98:d0:69:70:1b:60:60:1b:10:30:88:5c:9b:f0:6b:
        9e:52:47:2f:83:7d:77:e3:e2:af:a5:fb:de:65:91:51:0f:27:
        b2:34:25:8f:97:55:ee:11:d0:d1:4e:8f:7a:cf:9f:7d:8e:e6:
        27:24:61:cf
-----BEGIN CERTIFICATE-----
MIIDFTCCAf2gAwIBAgIIKMLQ/VgiE48wDQYJKoZIhvcNAQELBQAwGjEYMBYGA1UE
AxMPc2xvcHB5LXNhbi1yb290MCAXDTI1MTAxNDAwMjAxOVoYDzIxMjUwOTIwMDAy
MDE5WjAaMRgwFgYDVQQDEw9zbG9wcHktc2FuLXJvb3QwggEiMA0GCSqGSIb3DQEB
AQUAA4IBDwAwggEKAoIBAQCeADhwjaec/YnkM/l+45kfGWmpo3zKjvRS78ioPfxs
CJWLFPnZoislfBWOqqnsGf5inxgzEnKwLze23tAk/hnveJO3fXpERkwUvdcjp/xE
Q235Kfh5KmH8H9R5SRlTW21aZs1ZqSs4x8U4lrgSNsVg2Nzqht+azVCVvl8aOGfc
v2ckXu0GeTK1Gb0R7P9ht+IyBY22yRK6knwqniZxstCFlZ1oedA+5Yus6OQibXmj
d1gBcvlnfdhef1xWRTE2jvW+SMRm8RTtOEOuX8wgZntI33jV9E9nKtTuezbSwV/R
O+S7MQ+UDBn3F5mZBOu3tDRs+QuMYemlW1Bi9yRRJT1DAgMBAAGjXTBbMA4GA1Ud
DwEB/wQEAwICpDAPBgNVHRMBAf8EBTADAQH/MB0GA1UdDgQWBBSaoag8MBvsH7If
EA4MQqgquJeajjAZBgNVHREEEjAQggCCDGV4YW1wbGUuY29tLjANBgkqhkiG9w0B
AQsFAAOCAQEATU/vR6BBlprgmOPmXk9warEWPBCL+SsSV1goiKQa6EykvqDBrQeV
3dm826nbMV9CMGAZ4ij7cniRp4PnvQ9SuCv+0A4DZA4Ii2K5vDAddoZCpv7wVQ08
FpcyOp8aDlsBaJ03dtXtqOXmG33/suPAoI/LL5jla+W27/6kxPgzb+GQiRZpWMjK
lZnRhI4Og+2nrqxOMn5ylfrOP2KuBldAsr95j7L2aQfu2HxwsFKN9gj53qhqkHdq
ZVJngpgyaGZNjmuo3bU8p/60mNBpcBtgYBsQMIhcm/BrnlJHL4N9d+Pir6X73mWR
UQ8nsjQlj5dV7hHQ0U6Pes+ffY7mJyRhzw==
-----END CERTIFICATE-----
