Certificate:
    Data:
        Version: 3 (0x2)
        Serial Number: 6084561304482469822 (0x5470b444dfc3d7be)
        Signature Algorithm: sha256WithRSAEncryption
        Issuer: CN=sloppy-san-root
        Validity
            Not Before: Oct 14 00:20:19 2025 GMT
            Not After : Sep 20 00:20:19 2125 GMT
        Subject: CN=sloppy-san-client
        Subject Public Key Info:
            Public Key Algorithm: id-ecPublicKey
                Public-Key: (256 bit)
                pub:
                    04:5c:c5:bd:b2:0f:22:c9:a8:30:c2:19:49:f7:8a:
                    74:6e:b0:79:36:a4:98:23:2b:68:8f:5f:1b:b3:ac:
                    4f:67:75:2a:11:9a:39:06:15:e2:da:6d:82:c7:c6:
                    a5:b6:1a:f3:a1:76:cc:20:6a:fe:00:b5:16:0e:02:
                    a4:ec:15:6e:4a
                ASN1 OID: prime256v1
                NIST CURVE: P-256
        X509v3 extensions:
            X509v3 Key Usage: critical
                Digital Signature, Key Encipherment
            X509v3 Extended Key Usage: 
                TLS Web Client Authentication
            X509v3 Basic Constraints: critical
                CA:FALSE
            X509v3 Authority Key Identifier: 
                9A:A1:A8:3C:30:1B:EC:1F:B2:1F:10:0E:0C:42:A8:2A:B8:97:9A:8E
            X509v3 Subject Alternative Name: 
                DNS:, DNS:example.com., email:not-an-email
    Signature Algorithm: sha256WithRSAEncryption
    Signature Value:
        96:bc:48:3c:aa:f6:8c:e4:a4:b5:40:6d:fe:20:1b:60:40:12:
        e9:f5:58:94:0e:0d:dc:6d:a3:83:ae:3d:05:3b:64:1a:f4:c0:
        23:c9:0d:63:02:ea:c2:f4:e8:bc:88:20:8e:2e:bb:f0:79:32:
        cc:0a:59:e2:17:6f:63:aa:5e:b8:0d:54:15:2f:5c:eb:08:7e:
        eb:fe:31:62:b1:e5:da:88:dc:be:9e:20:01:f1:73:40:8d:13:
        55:36:aa:2e:58:13:b4:85:aa:63:30:2c:47:a4:95:61:33:f3:
        31:c7:f8:91:d1:18:3c:65:a8:fb:a4:8f:dc:51:8e:9a:d5:dc:
        eb:04:b5:b1:f9:82:f5:ff:4a:7b:27:b3:3e:8e:59:30:93:57:
        7d:f2:b4:af:94:39:2b:b9:0d:c1:e5:94:0f:8d:83:03:74:e5:
        6f:38:cd:ee:df:1b:5d:64:48:b9:05:27:5f:09:12:c8:03:96:
        36:0d:d4:19:5b:be:76:ea:7d:f3:20:08:2a:b4:c6:92:63:41:
        44:d8:2c:b1:b8:71:7c:a9:1f:26:d7:99:04:d4:9b:a6:4b:a4:
        fa:ef:b2:a9:f5:e7:af:53:4b:de:00:45:5c:5b:f0:2a:1a:bc:
        40:2f:97:ca:fb:9c:53:a8:16:46:89:a0:f9:43:45:47:de:3e:
        09:8e:a6:22
-----BEGIN CERTIFICATE-----
MIICbjCCAVagAwIBAgIIVHC0RN/D174wDQYJKoZIhvcNAQELBQAwGjEYMBYGA1UE
AxMPc2xvcHB5LXNhbi1yb290MCAXDTI1MTAxNDAwMjAxOVoYDzIxMjUwOTIwMDAy
MDE5WjAcMRowGAYDVQQDExFzbG9wcHktc2FuLWNsaWVudDBZMBMGByqGSM49AgEG
CCqGSM49AwEHA0IABFzFvbIPIsmoMMIZSfeKdG6weTakmCMraI9fG7OsT2d1KhGa
OQYV4tptgsfGpbYa86F2zCBq/gC1Fg4CpOwVbkqjfzB9MA4GA1UdDwEB/wQEAwIF
oDATBgNVHSUEDDAKBggrBgEFBQcDAjAMBgNVHRMBAf8EAjAAMB8GA1UdIwQYMBaA
FJqhqDwwG+wfsh8QDgxCqCq4l5qOMCcGA1UdEQQgMB6CAIIMZXhhbXBsZS5jb20u
gQxub3QtYW4tZW1haWwwDQYJKoZIhvcNAQELBQADggEBAJa8SDyq9ozkpLVAbf4g
G2BAEun1WJQODdxto4OuPQU7ZBr0wCPJDWMC6sL06LyIII4uu/B5MswKWeIXb2Oq
XrgNVBUvXOsIfuv+MWKx5dqI3L6eIAHxc0CNE1U2qi5YE7SFqmMwLEeklWEz8zHH
+JHRGDxlqPukj9xRjprV3OsEtbH5gvX/Snsnsz6OWTCTV33ytK+UOSu5DcHllA+N
gwN05W84ze7fG11kSLkFJ18JEsgDljYN1BlbvnbqffMgCCq0xpJjQUTYLLG4cXyp
HybXmQTUm6ZLpPrvsqn1569TS94ARVxb8CoavEAvl8r7nFOoFkaJoPlDRUfePgmO
piI=
-----END CERTIFICATE-----
