Certificate:
    Data:
        Version: 3 (0x2)
        Serial Number: 0 (0x0)
    Signature Algorithm: sha1WithRSAEncryption
        Issuer: C=GB, O=Certificate Transparency CA, ST=Wales, L=Erw Wen
        Validity
            Not Before: Jun  1 00:00:00 2012 GMT
            Not After : Jun  1 00:00:00 2022 GMT
        Subject: C=GB, O=Certificate Transparency CA, ST=Wales, L=Erw Wen
        Subject Public Key Info:
            Public Key Algorithm: rsaEncryption
                Public-Key: (1024 bit)
                Modulus:
                    00:d5:8a:68:53:62:10:a2:71:19:93:6e:77:83:21:
                    18:1c:2a:40:13:c6:d0:7b:8c:76:eb:91:57:d3:d0:
                    fb:4b:3b:51:6e:ce:cb:d1:c9:8d:91:c5:2f:74:3f:
                    ab:63:5d:55:09:9c:d1:3a:ba:f3:1a:e5:41:44:24:
                    51:a7:4c:78:16:f2:24:3c:f8:48:cf:28:31:cc:e6:
                    7b:a0:4a:5a:23:81:9f:3c:ba:37:e6:24:d9:c3:bd:
                    b2:99:b8:39:dd:fe:26:31:d2:cb:3a:84:fc:7b:b2:
                    b5:c5:2f:cf:c1:4f:ff:40:6f:5c:d4:46:69:cb:b2:
                    f7:cf:df:86:fb:6a:b9:d1:b1
                Exponent: 65537 (0x10001)
        X509v3 extensions:
            X509v3 Subject Key Identifier: 
                5F:9D:88:0D:C8:73:E6:54:D4:F8:0D:D8:E6:B0:C1:24:B4:47:C3:55
            X509v3 Authority Key Identifier: 
                keyid:5F:9D:88:0D:C8:73:E6:54:D4:F8:0D:D8:E6:B0:C1:24:B4:47:C3:55
                DirName:/C=GB/O=Certificate Transparency CA/ST=Wales/L=Erw Wen
                serial:00

            X509v3 Basic Constraints: 
                CA:TRUE
    Signature Algorithm: sha1WithRSAEncryption
         06:08:cc:4a:6d:64:f2:20:5e:14:6c:04:b2:76:f9:2b:0e:fa:
         94:a5:da:f2:3a:fc:38:06:60:6d:39:90:d0:a1:ea:23:3d:40:
         29:57:69:46:3b:04:66:61:e7:fa:1d:17:99:15:20:9a:ea:2e:
         0a:77:51:76:41:12:27:d7:c0:03:07:c7:47:0e:61:58:4f:d7:
         33:42:24:72:7f:51:d6:90:bc:47:a9:df:35:4d:b0:f6:eb:25:
         95:5d:e1:89:3c:4d:d5:20:2b:24:a2:f3:e4:40:d2:74:b5:4e:
         1b:d3:76:26:9c:a9:62:89:b7:6e:ca:a4:10:90:e1:4f:3b:0a:
         94:2e
-----BEGIN CERTIFICATE-----
MIIC0DCCAjmgAwIBAgIBADANBgkqhkiG9w0BAQUFADBVMQswCQYDVQQGEwJHQjEk
MCIGA1UEChMbQ2VydGlmaWNhdGUgVHJhbnNwYXJlbmN5IENBMQ4wDAYDVQQIEwVX
YWxlczEQMA4GA1UEBxMHRXJ3IFdlbjAeFw0xMjA2MDEwMDAwMDBaFw0yMjA2MDEw
MDAwMDBaMFUxCzAJBgNVBAYTAkdCMSQwIgYDVQQKExtDZXJ0aWZpY2F0ZSBUcmFu
c3BhcmVuY3kgQ0ExDjAMBgNVBAgTBVdhbGVzMRAwDgYDVQQHEwdFcncgV2VuMIGf
MA0GCSqGSIb3DQEBAQUAA4GNADCBiQKBgQDVimhTYhCicRmTbneDIRgcKkATxtB7
jHbrkVfT0PtLO1FuzsvRyY2RxS90P6tjXVUJnNE6uvMa5UFEJFGnTHgW8iQ8+EjP
KDHM5nugSlojgZ88ujfmJNnDvbKZuDnd/iYx0ss6hPx7srXFL8/BT/9Ab1zURmnL
svfP34b7arnRsQIDAQABo4GvMIGsMB0GA1UdDgQWBBRfnYgNyHPmVNT4DdjmsMEk
tEfDVTB9BgNVHSMEdjB0gBRfnYgNyHPmVNT4DdjmsMEktEfDVaFZpFcwVTELMAkG
A1UEBhMCR0IxJDAiBgNVBAoTG0NlcnRpZmljYXRlIFRyYW5zcGFyZW5jeSBDQTEO
MAwGA1UECBMFV2FsZXMxEDAOBgNVBAcTB0VydyBXZW6CAQAwDAYDVR0TBAUwAwEB
/zANBgkqhkiG9w0BAQUFAAOBgQAGCMxKbWTyIF4UbASydvkrDvqUpdryOvw4BmBt
OZDQoeojPUApV2lGOwRmYef6HReZFSCa6i4Kd1F2QRIn18ADB8dHDmFYT9czQiRy
f1HWkLxHqd81TbD26yWVXeGJPE3VICskovPkQNJ0tU4b03YmnKliibduyqQQkOFP
OwqULg==
-----END CERTIFICATE-----
