Certificate:
    Data:
        Version: 3 (0x2)
        Serial Number: 1 (0x1)
    Signature Algorithm: sha1WithRSAEncryption
        Issuer: C=GB, O=Certificate Transparency CA, ST=Wales, L=Erw Wen
        Validity
            Not Before: Jun  1 00:00:00 2012 GMT
            Not After : Jun  1 00:00:00 2022 GMT
        Subject: C=GB, O=Certificate Transparency PreCA, ST=Wales, L=Erw Wen
        Subject Public Key Info:
            Public Key Algorithm: rsaEncryption
                Public-Key: (1024 bit)
                Modulus:
                    00:bd:f0:3b:42:85:bf:0a:3d:8b:5a:62:cf:dd:89:
                    8d:a0:13:cf:ba:ce:7d:5c:88:b9:74:ce:48:55:16:
                    77:b4:c1:c1:18:dd:e2:48:45:7d:8c:3e:46:ac:a4:
                    81:06:cb:91:14:c1:c6:eb:49:4a:7f:e4:c6:e4:18:
                    c0:f9:13:de:7f:90:a2:c7:47:54:ef:cd:0b:e1:00:
                    92:80:61:03:1e:c9:ad:96:c4:53:2a:c6:9a:35:f4:
                    7e:98:87:85:19:bd:36:a6:f9:9b:34:95:2d:14:57:
                    42:e8:b9:04:e7:fb:b8:ee:ac:00:3a:99:ed:15:68:
                    9f:15:60:d5:c1:77:4a:16:a7
                Exponent: 65537 (0x10001)
        X509v3 extensions:
            X509v3 Subject Key Identifier: 
                07:EF:B3:40:23:34:F7:9E:FE:23:80:83:B2:E2:0D:5C:EA:10:7D:40
            X509v3 Basic Constraints: critical
                CA:TRUE
            X509v3 Extended Key Usage: critical
                1.3.6.1.4.1.11129.2.4.4
            X509v3 Authority Key Identifier: 
                keyid:5F:9D:88:0D:C8:73:E6:54:D4:F8:0D:D8:E6:B0:C1:24:B4:47:C3:55
                DirName:/C=GB/O=Certificate Transparency CA/ST=Wales/L=Erw Wen
                serial:00

    Signature Algorithm: sha1WithRSAEncryption
         8e:2f:55:ee:fc:5a:19:c9:2a:fc:93:63:d6:5a:2f:c1:7c:c2:
         00:3a:f1:55:a1:a0:be:00:6a:02:9c:0a:00:1e:27:22:86:16:
         34:aa:0d:38:75:80:0c:fb:bc:2e:d7:99:b3:36:b9:be:40:a1:
         c7:1b:ca:d4:ed:ef:3c:30:70:72:78:70:18:01:e5:d0:57:31:
         f8:ef:2d:59:5f:89:57:68:15:44:3d:e2:47:f4:69:92:fa:99:
         9d:e6:05:39:19:7f:a6:0c:37:fc:ef:68:32:5c:97:21:37:30:
         2f:13:8f:a6:e1:f6:fe:05:dd:49:59:02:20:f1:7d:61:87:f6:
         c9:6e
-----BEGIN CERTIFICATE-----
MIIC8DCCAlmgAwIBAgIBATANBgkqhkiG9w0BAQUFADBVMQswCQYDVQQGEwJHQjEk
MCIGA1UEChMbQ2VydGlmaWNhdGUgVHJhbnNwYXJlbmN5IENBMQ4wDAYDVQQIEwVX
YWxlczEQMA4GA1UEBxMHRXJ3IFdlbjAeFw0xMjA2MDEwMDAwMDBaFw0yMjA2MDEw
MDAwMDBaMFgxCzAJBgNVBAYTAkdCMScwJQYDVQQKEx5DZXJ0aWZpY2F0ZSBUcmFu
c3BhcmVuY3kgUHJlQ0ExDjAMBgNVBAgTBVdhbGVzMRAwDgYDVQQHEwdFcncgV2Vu
MIGfMA0GCSqGSIb3DQEBAQUAA4GNADCBiQKBgQC98DtChb8KPYtaYs/diY2gE8+6
zn1ciLl0zkhVFne0wcEY3eJIRX2MPkaspIEGy5EUwcbrSUp/5MbkGMD5E95/kKLH
R1TvzQvhAJKAYQMeya2WxFMqxpo19H6Yh4UZvTam+Zs0lS0UV0LouQTn+7jurAA6
me0VaJ8VYNXBd0oWpwIDAQABo4HMMIHJMB0GA1UdDgQWBBQH77NAIzT3nv4jgIOy
4g1c6hB9QDAPBgNVHRMBAf8EBTADAQH/MBgGA1UdJQEB/wQOMAwGCisGAQQB1nkC
BAQwfQYDVR0jBHYwdIAUX52IDchz5lTU+A3Y5rDBJLRHw1WhWaRXMFUxCzAJBgNV
BAYTAkdCMSQwIgYDVQQKExtDZXJ0aWZpY2F0ZSBUcmFuc3BhcmVuY3kgQ0ExDjAM
BgNVBAgTBVdhbGVzMRAwDgYDVQQHEwdFcncgV2VuggEAMA0GCSqGSIb3DQEBBQUA
A4GBAI4vVe78WhnJKvyTY9ZaL8F8wgA68VWhoL4AagKcCgAeJyKGFjSqDTh1gAz7
vC7XmbM2ub5AoccbytTt7zwwcHJ4cBgB5dBXMfjvLVlfiVdoFUQ94kf0aZL6mZ3m
BTkZf6YMN/zvaDJclyE3MC8Tj6bh9v4F3UlZAiDxfWGH9slu
-----END CERTIFICATE-----
