Certificate:
    Data:
        Version: 3 (0x2)
        Serial Number: 0 (0x0)
    Signature Algorithm: sha1WithRSAEncryption
        Issuer: C=GB, O=Certificate Transparency Intermediate CA, ST=Wales, L=Erw Wen
        Validity
            Not Before: Jun  1 00:00:00 2012 GMT
            Not After : Jun  1 00:00:00 2022 GMT
        Subject: C=GB, O=Certificate Transparency Intermediate PreCA, ST=Wales, L=Erw Wen
        Subject Public Key Info:
            Public Key Algorithm: rsaEncryption
                Public-Key: (1024 bit)
                Modulus:
                    00:b7:b7:c4:6b:27:13:9f:09:6b:ca:1b:5b:45:53:
                    26:6d:9b:87:96:a4:2a:18:a2:88:11:f9:0d:ec:5e:
                    69:16:c1:dc:fe:b1:b6:45:43:a8:2e:b1:63:4a:ee:
                    86:45:03:87:a5:5c:9f:b0:43:23:47:8c:88:b2:1a:
                    c9:d6:41:12:d8:92:57:c0:93:06:21:07:aa:2c:4b:
                    cb:78:3d:10:92:2e:03:f8:cf:41:bf:80:76:ec:4d:
                    02:1d:40:36:8b:aa:b3:96:21:54:ac:f8:c7:10:3c:
                    9d:12:9c:26:aa:e3:92:55:fc:b9:14:40:4a:42:d9:
                    73:94:87:41:4b:c8:80:9c:4b
                Exponent: 65537 (0x10001)
        X509v3 extensions:
            X509v3 Subject Key Identifier: 
                C3:1B:10:3A:01:BA:D5:E0:AB:A6:4B:A7:52:40:96:12:71:3D:29:32
            X509v3 Basic Constraints: critical
                CA:TRUE
            X509v3 Extended Key Usage: critical
                1.3.6.1.4.1.11129.2.4.4
            X509v3 Authority Key Identifier: 
                keyid:96:55:08:05:02:78:47:9E:87:73:76:41:31:BC:14:3A:47:E2:29:AB
                DirName:/C=GB/O=Certificate Transparency CA/ST=Wales/L=Erw Wen
                serial:09

    Signature Algorithm: sha1WithRSAEncryption
         89:36:9e:66:1f:de:5a:93:4d:f1:ab:58:0e:4e:b4:62:af:a1:
         4e:a5:c0:00:b0:2d:f4:d1:41:f1:7c:10:1b:70:fc:9a:b7:a7:
         49:9f:d8:ef:dd:98:0a:e4:a2:d3:1e:fe:d1:3b:8d:be:0b:49:
         e8:ce:5e:0f:69:e9:2e:3b:b5:35:53:74:ed:fc:ac:0e:42:18:
         8e:09:7c:7b:fc:ba:12:72:37:36:31:0b:2f:60:a7:93:2c:2e:
         16:10:4b:2b:ef:1d:32:56:5e:78:41:79:d5:8b:90:9f:c9:47:
         8d:92:a1:9e:ed:8e:88:5e:ae:cb:93:db:ac:2b:70:e6:21:ab:
         fa:5c
-----BEGIN CERTIFICATE-----
MIIDCjCCAnOgAwIBAgIBADANBgkqhkiG9w0BAQUFADBiMQswCQYDVQQGEwJHQjEx
MC8GA1UEChMoQ2VydGlmaWNhdGUgVHJhbnNwYXJlbmN5IEludGVybWVkaWF0ZSBD
QTEOMAwGA1UECBMFV2FsZXMxEDAOBgNVBAcTB0VydyBXZW4wHhcNMTIwNjAxMDAw
MDAwWhcNMjIwNjAxMDAwMDAwWjBlMQswCQYDVQQGEwJHQjE0MDIGA1UEChMrQ2Vy
dGlmaWNhdGUgVHJhbnNwYXJlbmN5IEludGVybWVkaWF0ZSBQcmVDQTEOMAwGA1UE
CBMFV2FsZXMxEDAOBgNVBAcTB0VydyBXZW4wgZ8wDQYJKoZIhvcNAQEBBQADgY0A
MIGJAoGBALe3xGsnE58Ja8obW0VTJm2bh5akKhiiiBH5DexeaRbB3P6xtkVDqC6x
Y0ruhkUDh6Vcn7BDI0eMiLIaydZBEtiSV8CTBiEHqixLy3g9EJIuA/jPQb+AduxN
Ah1ANouqs5YhVKz4xxA8nRKcJqrjklX8uRRASkLZc5SHQUvIgJxLAgMBAAGjgcww
gckwHQYDVR0OBBYEFMMbEDoButXgq6ZLp1JAlhJxPSkyMA8GA1UdEwEB/wQFMAMB
Af8wGAYDVR0lAQH/BA4wDAYKKwYBBAHWeQIEBDB9BgNVHSMEdjB0gBSWVQgFAnhH
nodzdkExvBQ6R+Ipq6FZpFcwVTELMAkGA1UEBhMCR0IxJDAiBgNVBAoTG0NlcnRp
ZmljYXRlIFRyYW5zcGFyZW5jeSBDQTEOMAwGA1UECBMFV2FsZXMxEDAOBgNVBAcT
B0VydyBXZW6CAQkwDQYJKoZIhvcNAQEFBQADgYEAiTaeZh/eWpNN8atYDk60Yq+h
TqXAALAt9NFB8XwQG3D8mrenSZ/Y792YCuSi0x7+0TuNvgtJ6M5eD2npLju1NVN0
7fysDkIYjgl8e/y6EnI3NjELL2CnkywuFhBLK+8dMlZeeEF51YuQn8lHjZKhnu2O
iF6uy5PbrCtw5iGr+lw=
-----END CERTIFICATE-----
