Certificate:
    Data:
        Version: 3 (0x2)
        Serial Number: 7 (0x7)
    Signature Algorithm: sha1WithRSAEncryption
        Issuer: C=GB, O=Certificate Transparency CA, ST=Wales, L=Erw Wen
        Validity
            Not Before: Jun  1 00:00:00 2012 GMT
            Not After : Jun  1 00:00:00 2022 GMT
        Subject: C=GB, O=Certificate Transparency, ST=Wales, L=Erw Wen
        Subject Public Key Info:
            Public Key Algorithm: rsaEncryption
                Public-Key: (1024 bit)
                Modulus:
                    00:be:ef:98:e7:c2:68:77:ae:38:5f:75:32:5a:0c:
                    1d:32:9b:ed:f1:8f:aa:f4:d7:96:bf:04:7e:b7:e1:
                    ce:15:c9:5b:a2:f8:0e:e4:58:bd:7d:b8:6f:8a:4b:
                    25:21:91:a7:9b:d7:00:c3:8e:9c:03:89:b4:5c:d4:
                    dc:9a:12:0a:b2:1e:0c:b4:1c:d0:e7:28:05:a4:10:
                    cd:9c:5b:db:5d:49:27:72:6d:af:17:10:f6:01:87:
                    37:7e:a2:5b:1a:1e:39:ee:d0:b8:81:19:dc:15:4d:
                    c6:8f:7d:a8:e3:0c:af:15:8a:33:e6:c9:50:9f:4a:
                    05:b0:14:09:ff:5d:d8:7e:b5
                Exponent: 65537 (0x10001)
        X509v3 extensions:
            X509v3 Subject Key Identifier: 
                20:31:54:1A:F2:5C:05:FF:D8:65:8B:68:43:79:4F:5E:90:36:F7:B4
            X509v3 Authority Key Identifier: 
                keyid:5F:9D:88:0D:C8:73:E6:54:D4:F8:0D:D8:E6:B0:C1:24:B4:47:C3:55
                DirName:/C=GB/O=Certificate Transparency CA/ST=Wales/L=Erw Wen
                serial:00

            X509v3 Basic Constraints: 
                CA:FALSE
            1.3.6.1.4.1.11129.2.4.2: 
                .z.x.v........RG.ah2].\yY..........?t.d...=.'.......G0E.!...E..9-...W.....E.L..8V.......u.. ^&...."...)....4...O.......f...?
    Signature Algorithm: sha1WithRSAEncryption
         af:28:89:06:38:b0:12:6f:dd:64:5d:d0:62:80:f8:10:6c:ec:
         49:4c:f8:22:86:0a:29:d4:f1:7e:6a:a5:7c:5a:58:b2:96:cc:
         90:c6:db:f1:22:10:4b:7f:4a:76:d6:fd:df:f2:1a:41:3a:9e:
         e7:88:7e:32:a3:c7:a2:07:3c:e6:af:ae:01:b4:1a:a2:3d:ce:
         98:f3:ab:5e:c7:5c:e7:59:fa:7c:cc:ab:4f:fa:7a:a7:3e:7d:
         98:38:77:c6:d0:f1:de:cd:dd:37:49:00:59:b7:91:90:b2:7f:
         85:94:2b:7c:c8:b2:3c:bf:90:30:68:5d:21:43:c4:95:a5:39:
         6d:9f
-----BEGIN CERTIFICATE-----
MIIDWTCCAsKgAwIBAgIBBzANBgkqhkiG9w0BAQUFADBVMQswCQYDVQQGEwJHQjEk
MCIGA1UEChMbQ2VydGlmaWNhdGUgVHJhbnNwYXJlbmN5IENBMQ4wDAYDVQQIEwVX
YWxlczEQMA4GA1UEBxMHRXJ3IFdlbjAeFw0xMjA2MDEwMDAwMDBaFw0yMjA2MDEw
MDAwMDBaMFIxCzAJBgNVBAYTAkdCMSEwHwYDVQQKExhDZXJ0aWZpY2F0ZSBUcmFu
c3BhcmVuY3kxDjAMBgNVBAgTBVdhbGVzMRAwDgYDVQQHEwdFcncgV2VuMIGfMA0G
CSqGSIb3DQEBAQUAA4GNADCBiQKBgQC+75jnwmh3rjhfdTJaDB0ym+3xj6r015a/
BH634c4VyVui+A7kWL19uG+KSyUhkaeb1wDDjpwDibRc1NyaEgqyHgy0HNDnKAWk
EM2cW9tdSSdyba8XEPYBhzd+olsaHjnu0LiBGdwVTcaPfajjDK8VijPmyVCfSgWw
FAn/Xdh+tQIDAQABo4IBOjCCATYwHQYDVR0OBBYEFCAxVBryXAX/2GWLaEN5T16Q
Nve0MH0GA1UdIwR2MHSAFF+diA3Ic+ZU1PgN2OawwSS0R8NVoVmkVzBVMQswCQYD
VQQGEwJHQjEkMCIGA1UEChMbQ2VydGlmaWNhdGUgVHJhbnNwYXJlbmN5IENBMQ4w
DAYDVQQIEwVXYWxlczEQMA4GA1UEBxMHRXJ3IFdlboIBADAJBgNVHRMEAjAAMIGK
BgorBgEEAdZ5AgQCBHwEegB4AHYA3xwuwRUAlFJHqWFoMl3cXHlZ6PfG04j8AC4L
vT9012QAAAE92yfipAAABAMARzBFAiEAptNFF/M5LZ7F0let8cWX3EW9TNO3OFbG
Fqn7meWudagCIF4myNHH4iL+jNopuusEqDTul9NP2BcY8argzWb0uKk/MA0GCSqG
SIb3DQEBBQUAA4GBAK8oiQY4sBJv3WRd0GKA+BBs7ElM+CKGCinU8X5qpXxaWLKW
zJDG2/EiEEt/SnbW/d/yGkE6nueIfjKjx6IHPOavrgG0GqI9zpjzq17HXOdZ+nzM
q0/6eqc+fZg4d8bQ8d7N3TdJAFm3kZCyf4WUK3zIsjy/kDBoXSFDxJWlOW2f
-----END CERTIFICATE-----
