-----BEGIN CERTIFICATE-----
MIICHDCCAYUCCQCaxnsyZf5qhjANBgkqhkiG9w0BAQUFADBSMQswCQYDVQQGEwJH
QjEhMB8GA1UEChMYQ2VydGlmaWNhdGUgVHJhbnNwYXJlbmN5MQ4wDAYDVQQIEwVX
YWxlczEQMA4GA1UEBxMHRXJ3IFdlbjAeFw0xMzA0MDUxNzE3MTZaFw0xMzA1MDUx
NzE3MTZaMFMxCzAJBgNVBAYTAkdCMQ4wDAYDVQQIEwVXYWxlczEaMBgGA1UEChMR
RXJ3IFdlbiBmYWtlIGxlYWYxGDAWBgNVBAMTD3d3dy5leGFtcGxlLmNvbTCBnzAN
BgkqhkiG9w0BAQEFAAOBjQAwgYkCgYEAwGGWRhVH1o7I8NoZCBN30AzftPQL0fFx
YwcjTwZ8Kf4AzbspZYaDgkIixhijsDjSFgNW4QkuRBqZZeCmIz5D8mTo9mcu/MGW
4DN80LJUScQpmz7LSarR05F+N4/UsuH5FQVCMmBbGRjyj8Fs02j4fVS4MFEx6iAL
+f4DHySivQcCAwEAATANBgkqhkiG9w0BAQUFAAOBgQB/ii/ZqbIOuKqZffcusFfg
4j6elcN5OKvbF64bAG1JPxWB7tcTAYFpFs4i9aOEyBjEfTCZQ535QvvW0n1oPV0q
99rNxFa1J9SH01lYWlIDXpT9H8KD83+ogzNtg0YWXvFWcRDtkMGYvypOmBYNyLK7
59VEaBbnii9yUg+zwwh4uQ==
-----END CERTIFICATE-----
Certificate:
    Data:
        Version: 3 (0x2)
        Serial Number: 6 (0x6)
    Signature Algorithm: sha1WithRSAEncryption
        Issuer: C=GB, O=Certificate Transparency CA, ST=Wales, L=Erw Wen
        Validity
            Not Before: Jun  1 00:00:00 2012 GMT
            Not After : Jun  1 00:00:00 2022 GMT
        Subject: C=GB, O=Certificate Transparency, ST=Wales, L=Erw Wen
        Subject Public Key Info:
            Public Key Algorithm: rsaEncryption
                Public-Key: (1024 bit)
                Modulus:
                    00:a6:1b:fb:ed:b4:89:b4:1b:09:c2:ad:06:7a:6a:
                    f0:9d:c7:09:d3:c9:52:fa:60:52:4f:f6:05:bb:3f:
                    f8:7b:91:6a:ec:59:ed:e5:62:70:67:1e:47:e7:a7:
                    03:a0:3c:1c:b9:02:3b:04:9c:d0:8f:23:ba:66:8b:
                    f5:ea:b2:b9:02:b3:b1:bd:5a:82:ef:28:87:1b:c4:
                    cf:4d:fc:4f:da:3a:de:bd:fd:3a:2d:e8:7a:d5:d0:
                    75:84:b6:67:f3:7a:d1:8a:67:f6:89:7f:8b:13:93:
                    a1:71:c4:5c:5d:93:c7:33:0d:21:eb:9a:8c:8d:c3:
                    a1:c0:0d:0c:81:d2:0a:7c:c7
                Exponent: 65537 (0x10001)
        X509v3 extensions:
            X509v3 Subject Key Identifier: 
                9C:A1:B8:0F:09:AB:10:5D:89:5D:00:2E:12:E2:85:4E:2F:0E:18:27
            X509v3 Authority Key Identifier: 
                keyid:36:33:12:99:DB:DC:38:9D:1C:CC:FE:31:C0:8B:89:32:50:1A:8F:7C
                DirName:/C=GB/O=Certificate Transparency CA/ST=Wales/L=Erw Wen
                serial:00

            X509v3 Basic Constraints: 
                CA:FALSE
    Signature Algorithm: sha1WithRSAEncryption
         bb:eb:5c:86:f6:dc:80:1b:8b:f0:95:18:38:de:b3:d8:a1:87:
         ce:d3:9b:f0:0d:9a:82:d8:b1:2f:2a:06:45:ab:c7:4d:b8:0e:
         2c:60:fd:02:21:6a:79:ec:df:45:5a:a1:8c:71:58:af:55:dc:
         d7:7b:db:6d:3d:db:e4:bb:88:9b:d6:33:1d:41:90:de:5a:9f:
         49:39:fb:ca:58:14:6d:8a:81:9e:f1:43:cf:68:f9:41:58:85:
         c0:87:16:0a:b3:81:48:24:37:7b:1a:b3:7f:30:58:cd:c6:c4:
         1a:10:6a:db:08:5b:d0:7d:8f:a6:e4:c5:eb:e2:df:79:71:42:
         ea:7b
-----BEGIN CERTIFICATE-----
MIICyjCCAjOgAwIBAgIBBjANBgkqhkiG9w0BAQUFADBVMQswCQYDVQQGEwJHQjEk
MCIGA1UEChMbQ2VydGlmaWNhdGUgVHJhbnNwYXJlbmN5IENBMQ4wDAYDVQQIEwVX
YWxlczEQMA4GA1UEBxMHRXJ3IFdlbjAeFw0xMjA2MDEwMDAwMDBaFw0yMjA2MDEw
MDAwMDBaMFIxCzAJBgNVBAYTAkdCMSEwHwYDVQQKExhDZXJ0aWZpY2F0ZSBUcmFu
c3BhcmVuY3kxDjAMBgNVBAgTBVdhbGVzMRAwDgYDVQQHEwdFcncgV2VuMIGfMA0G
CSqGSIb3DQEBAQUAA4GNADCBiQKBgQCmG/vttIm0GwnCrQZ6avCdxwnTyVL6YFJP
9gW7P/h7kWrsWe3lYnBnHkfnpwOgPBy5AjsEnNCPI7pmi/XqsrkCs7G9WoLvKIcb
xM9N/E/aOt69/Tot6HrV0HWEtmfzetGKZ/aJf4sTk6FxxFxdk8czDSHrmoyNw6HA
DQyB0gp8xwIDAQABo4GsMIGpMB0GA1UdDgQWBBScobgPCasQXYldAC4S4oVOLw4Y
JzB9BgNVHSMEdjB0gBQ2MxKZ29w4nRzM/jHAi4kyUBqPfKFZpFcwVTELMAkGA1UE
BhMCR0IxJDAiBgNVBAoTG0NlcnRpZmljYXRlIFRyYW5zcGFyZW5jeSBDQTEOMAwG
A1UECBMFV2FsZXMxEDAOBgNVBAcTB0VydyBXZW6CAQAwCQYDVR0TBAIwADANBgkq
hkiG9w0BAQUFAAOBgQC761yG9tyAG4vwlRg43rPYoYfO05vwDZqC2LEvKgZFq8dN
uA4sYP0CIWp57N9FWqGMcVivVdzXe9ttPdvku4ib1jMdQZDeWp9JOfvKWBRtioGe
8UPPaPlBWIXAhxYKs4FIJDd7GrN/MFjNxsQaEGrbCFvQfY+m5MXr4t95cULqew==
-----END CERTIFICATE-----
Certificate:
    Data:
        Version: 3 (0x2)
        Serial Number: 0 (0x0)
    Signature Algorithm: sha1WithRSAEncryption
        Issuer: C=GB, O=Certificate Transparency CA, ST=Wales, L=Erw Wen
        Validity
            Not Before: Jun  1 00:00:00 2012 GMT
            Not After : Jun  1 00:00:00 2022 GMT
        Subject: C=GB, O=Certificate Transparency CA, ST=Wales, L=Erw Wen
        Subject Public Key Info:
            Public Key Algorithm: rsaEncryption
                Public-Key: (1024 bit)
                Modulus:
                    00:d6:42:46:b8:ec:f5:96:da:9f:9b:51:11:ab:f6:
                    24:3a:71:49:b8:04:98:a6:2d:bf:1e:b3:16:a8:90:
                    37:0e:07:40:45:35:b6:28:f3:be:5c:89:ad:da:11:
                    9a:30:e6:29:40:1f:d0:1e:b8:ff:7f:70:40:54:18:
                    72:cb:bb:cf:d5:1e:fa:c0:52:cf:a1:c9:43:4d:9c:
                    eb:bb:38:0d:4d:8f:6b:a9:bb:eb:02:99:91:54:a9:
                    e6:d3:3a:71:18:4d:2f:e7:ad:4f:6f:b3:c4:45:02:
                    f3:0b:fb:9e:63:a1:be:57:ec:42:a9:b2:78:19:39:
                    ca:b9:a7:0e:3a:38:c2:a0:03
                Exponent: 65537 (0x10001)
        X509v3 extensions:
            X509v3 Subject Key Identifier: 
                36:33:12:99:DB:DC:38:9D:1C:CC:FE:31:C0:8B:89:32:50:1A:8F:7C
            X509v3 Authority Key Identifier: 
                keyid:36:33:12:99:DB:DC:38:9D:1C:CC:FE:31:C0:8B:89:32:50:1A:8F:7C
                DirName:/C=GB/O=Certificate Transparency CA/ST=Wales/L=Erw Wen
                serial:00

            X509v3 Basic Constraints: 
                CA:TRUE
    Signature Algorithm: sha1WithRSAEncryption
         3a:0d:15:85:e8:e3:dd:84:d3:65:09:7c:77:bc:5c:cf:7d:23:
         18:5a:ba:df:de:3f:0e:43:a6:e8:90:98:91:8d:19:44:d7:d2:
         71:7f:a6:8d:86:66:d8:6f:af:95:ae:aa:82:8e:c3:ba:26:f4:
         68:7c:c1:7f:b2:0b:4e:c5:b3:8a:43:71:9b:46:47:fb:ba:20:
         29:90:2e:eb:e2:27:e7:ff:7f:7b:41:cc:2f:7f:22:52:87:55:
         44:b6:47:5d:d7:ef:f0:38:25:cc:6c:9f:db:42:17:eb:65:ea:
         4c:89:09:45:c3:ec:36:d1:c0:d0:4b:ba:c9:cf:fc:72:7d:13:
         5c:70
-----BEGIN CERTIFICATE-----
MIIC0DCCAjmgAwIBAgIBADANBgkqhkiG9w0BAQUFADBVMQswCQYDVQQGEwJHQjEk
MCIGA1UEChMbQ2VydGlmaWNhdGUgVHJhbnNwYXJlbmN5IENBMQ4wDAYDVQQIEwVX
YWxlczEQMA4GA1UEBxMHRXJ3IFdlbjAeFw0xMjA2MDEwMDAwMDBaFw0yMjA2MDEw
MDAwMDBaMFUxCzAJBgNVBAYTAkdCMSQwIgYDVQQKExtDZXJ0aWZpY2F0ZSBUcmFu
c3BhcmVuY3kgQ0ExDjAMBgNVBAgTBVdhbGVzMRAwDgYDVQQHEwdFcncgV2VuMIGf
MA0GCSqGSIb3DQEBAQUAA4GNADCBiQKBgQDWQka47PWW2p+bURGr9iQ6cUm4BJim
Lb8esxaokDcOB0BFNbYo875cia3aEZow5ilAH9AeuP9/cEBUGHLLu8/VHvrAUs+h
yUNNnOu7OA1Nj2upu+sCmZFUqebTOnEYTS/nrU9vs8RFAvML+55job5X7EKpsngZ
Ocq5pw46OMKgAwIDAQABo4GvMIGsMB0GA1UdDgQWBBQ2MxKZ29w4nRzM/jHAi4ky
UBqPfDB9BgNVHSMEdjB0gBQ2MxKZ29w4nRzM/jHAi4kyUBqPfKFZpFcwVTELMAkG
A1UEBhMCR0IxJDAiBgNVBAoTG0NlcnRpZmljYXRlIFRyYW5zcGFyZW5jeSBDQTEO
MAwGA1UECBMFV2FsZXMxEDAOBgNVBAcTB0VydyBXZW6CAQAwDAYDVR0TBAUwAwEB
/zANBgkqhkiG9w0BAQUFAAOBgQA6DRWF6OPdhNNlCXx3vFzPfSMYWrrf3j8OQ6bo
kJiRjRlE19Jxf6aNhmbYb6+VrqqCjsO6JvRofMF/sgtOxbOKQ3GbRkf7uiApkC7r
4ifn/397QcwvfyJSh1VEtkdd1+/wOCXMbJ/bQhfrZepMiQlFw+w20cDQS7rJz/xy
fRNccA==
-----END CERTIFICATE-----
