Certificate:
    Data:
        Version: 3 (0x2)
        Serial Number: 7 (0x7)
    Signature Algorithm: sha1WithRSAEncryption
        Issuer: C=GB, O=Certificate Transparency CA, ST=Wales, L=Erw Wen
        Validity
            Not Before: Jun  1 00:00:00 2012 GMT
            Not After : Jun  1 00:00:00 2022 GMT
        Subject: C=GB, O=Certificate Transparency, ST=Wales, L=Erw Wen
        Subject Public Key Info:
            Public Key Algorithm: rsaEncryption
                Public-Key: (1024 bit)
                Modulus:
                    00:be:ef:98:e7:c2:68:77:ae:38:5f:75:32:5a:0c:
                    1d:32:9b:ed:f1:8f:aa:f4:d7:96:bf:04:7e:b7:e1:
                    ce:15:c9:5b:a2:f8:0e:e4:58:bd:7d:b8:6f:8a:4b:
                    25:21:91:a7:9b:d7:00:c3:8e:9c:03:89:b4:5c:d4:
                    dc:9a:12:0a:b2:1e:0c:b4:1c:d0:e7:28:05:a4:10:
                    cd:9c:5b:db:5d:49:27:72:6d:af:17:10:f6:01:87:
                    37:7e:a2:5b:1a:1e:39:ee:d0:b8:81:19:dc:15:4d:
                    c6:8f:7d:a8:e3:0c:af:15:8a:33:e6:c9:50:9f:4a:
                    05:b0:14:09:ff:5d:d8:7e:b5
                Exponent: 65537 (0x10001)
        X509v3 extensions:
            X509v3 Subject Key Identifier: 
                20:31:54:1A:F2:5C:05:FF:D8:65:8B:68:43:79:4F:5E:90:36:F7:B4
            X509v3 Authority Key Identifier: 
                keyid:5F:9D:88:0D:C8:73:E6:54:D4:F8:0D:D8:E6:B0:C1:24:B4:47:C3:55
                DirName:/C=GB/O=Certificate Transparency CA/ST=Wales/L=Erw Wen
                serial:00

            X509v3 Basic Constraints: 
                CA:FALSE
            1.3.6.1.4.1.11129.2.4.3: critical
                ..
    Signature Algorithm: sha1WithRSAEncryption
         02:a1:c3:9e:01:5a:f5:4d:ff:02:3c:33:60:87:5f:ff:34:37:
         55:2f:1f:09:01:bd:c2:54:31:5f:33:72:b7:23:fb:15:fb:ce:
         cc:4d:f4:71:a0:ce:4d:8c:54:65:5d:84:87:97:fb:28:1e:3d:
         fa:bb:46:2d:2c:68:4b:05:6f:ea:7b:63:b4:70:ff:16:6e:32:
         d4:46:06:35:b3:d2:bc:6d:a8:24:9b:26:30:e7:1f:c3:4f:08:
         f2:3d:d4:ee:22:8f:8f:74:f6:3d:78:63:11:dd:0a:58:11:40:
         5f:90:6c:ca:2c:2d:3e:eb:fc:81:99:64:eb:d8:cf:7c:08:86:
         3f:be
-----BEGIN CERTIFICATE-----
MIIC3zCCAkigAwIBAgIBBzANBgkqhkiG9w0BAQUFADBVMQswCQYDVQQGEwJHQjEk
MCIGA1UEChMbQ2VydGlmaWNhdGUgVHJhbnNwYXJlbmN5IENBMQ4wDAYDVQQIEwVX
YWxlczEQMA4GA1UEBxMHRXJ3IFdlbjAeFw0xMjA2MDEwMDAwMDBaFw0yMjA2MDEw
MDAwMDBaMFIxCzAJBgNVBAYTAkdCMSEwHwYDVQQKExhDZXJ0aWZpY2F0ZSBUcmFu
c3BhcmVuY3kxDjAMBgNVBAgTBVdhbGVzMRAwDgYDVQQHEwdFcncgV2VuMIGfMA0G
CSqGSIb3DQEBAQUAA4GNADCBiQKBgQC+75jnwmh3rjhfdTJaDB0ym+3xj6r015a/
BH634c4VyVui+A7kWL19uG+KSyUhkaeb1wDDjpwDibRc1NyaEgqyHgy0HNDnKAWk
EM2cW9tdSSdyba8XEPYBhzd+olsaHjnu0LiBGdwVTcaPfajjDK8VijPmyVCfSgWw
FAn/Xdh+tQIDAQABo4HBMIG+MB0GA1UdDgQWBBQgMVQa8lwF/9hli2hDeU9ekDb3
tDB9BgNVHSMEdjB0gBRfnYgNyHPmVNT4DdjmsMEktEfDVaFZpFcwVTELMAkGA1UE
BhMCR0IxJDAiBgNVBAoTG0NlcnRpZmljYXRlIFRyYW5zcGFyZW5jeSBDQTEOMAwG
A1UECBMFV2FsZXMxEDAOBgNVBAcTB0VydyBXZW6CAQAwCQYDVR0TBAIwADATBgor
BgEEAdZ5AgQDAQH/BAIFADANBgkqhkiG9w0BAQUFAAOBgQACocOeAVr1Tf8CPDNg
h1//NDdVLx8JAb3CVDFfM3K3I/sV+87MTfRxoM5NjFRlXYSHl/soHj36u0YtLGhL
BW/qe2O0cP8WbjLURgY1s9K8bagkmyYw5x/DTwjyPdTuIo+PdPY9eGMR3QpYEUBf
kGzKLC0+6/yBmWTr2M98CIY/vg==
-----END CERTIFICATE-----
