Certificate:
    Data:
        Version: 3 (0x2)
        Serial Number: 2 (0x2)
    Signature Algorithm: sha1WithRSAEncryption
        Issuer: C=GB, O=Certificate Transparency Intermediate CA, ST=Wales, L=Erw Wen
        Validity
            Not Before: Jun  1 00:00:00 2012 GMT
            Not After : Jun  1 00:00:00 2022 GMT
        Subject: C=GB, O=Certificate Transparency, ST=Wales, L=Erw Wen
        Subject Public Key Info:
            Public Key Algorithm: rsaEncryption
                Public-Key: (1024 bit)
                Modulus:
                    00:bb:27:2b:26:e5:de:b5:45:9d:4a:cc:a0:27:e8:
                    f1:2a:4d:83:9a:c3:73:0a:6a:10:9f:f7:e2:54:98:
                    dd:bd:3f:18:95:d0:8b:a4:1f:8d:e3:49:67:a3:a0:
                    86:ce:13:a9:0d:d5:ad:bb:54:18:4b:dc:08:e1:ac:
                    78:26:ad:b8:dc:9c:71:7b:fd:7d:a5:b4:1b:4d:b1:
                    73:6e:00:f1:da:c3:ce:c9:81:9c:cb:1a:28:ba:12:
                    0b:02:0a:82:0e:94:0d:d6:1f:95:b5:43:2a:4b:c0:
                    5d:08:18:f1:8c:e2:15:4e:b3:8d:2f:a7:d2:2d:72:
                    b9:76:e5:60:db:0c:7f:c7:7f
                Exponent: 65537 (0x10001)
        X509v3 extensions:
            X509v3 Subject Key Identifier: 
                B1:B1:48:E6:58:E7:03:F5:F7:F3:10:5F:20:B3:C3:84:D7:EF:F1:BF
            X509v3 Authority Key Identifier: 
                keyid:96:55:08:05:02:78:47:9E:87:73:76:41:31:BC:14:3A:47:E2:29:AB
                DirName:/C=GB/O=Certificate Transparency CA/ST=Wales/L=Erw Wen
                serial:09

            X509v3 Basic Constraints: 
                CA:FALSE
            1.3.6.1.4.1.11129.2.4.3: critical
                ..
    Signature Algorithm: sha1WithRSAEncryption
         3e:3a:9b:8e:92:c9:8a:1f:1e:6a:81:4a:b1:f5:cd:61:56:23:
         01:3f:51:6c:be:a9:f3:1f:c7:eb:88:64:e9:fb:69:01:2f:67:
         d2:aa:99:36:ad:67:7d:b1:d1:28:4b:2d:08:2f:db:b5:7f:dd:
         d1:65:98:0c:09:41:62:21:6a:7c:9d:b4:f4:93:9c:9e:8b:19:
         c3:6b:d3:92:6d:29:69:80:6c:87:85:33:b8:a9:de:06:91:2e:
         be:07:b8:6b:bb:00:38:dc:a3:7b:4b:7a:62:f6:30:21:bd:50:
         5e:ee:67:37:10:7c:1c:a5:2c:a8:eb:e1:69:0a:b7:4c:ed:dc:
         eb:c7
-----BEGIN CERTIFICATE-----
MIIC7DCCAlWgAwIBAgIBAjANBgkqhkiG9w0BAQUFADBiMQswCQYDVQQGEwJHQjEx
MC8GA1UEChMoQ2VydGlmaWNhdGUgVHJhbnNwYXJlbmN5IEludGVybWVkaWF0ZSBD
QTEOMAwGA1UECBMFV2FsZXMxEDAOBgNVBAcTB0VydyBXZW4wHhcNMTIwNjAxMDAw
MDAwWhcNMjIwNjAxMDAwMDAwWjBSMQswCQYDVQQGEwJHQjEhMB8GA1UEChMYQ2Vy
dGlmaWNhdGUgVHJhbnNwYXJlbmN5MQ4wDAYDVQQIEwVXYWxlczEQMA4GA1UEBxMH
RXJ3IFdlbjCBnzANBgkqhkiG9w0BAQEFAAOBjQAwgYkCgYEAuycrJuXetUWdSsyg
J+jxKk2DmsNzCmoQn/fiVJjdvT8YldCLpB+N40lno6CGzhOpDdWtu1QYS9wI4ax4
Jq243Jxxe/19pbQbTbFzbgDx2sPOyYGcyxoouhILAgqCDpQN1h+VtUMqS8BdCBjx
jOIVTrONL6fSLXK5duVg2wx/x38CAwEAAaOBwTCBvjAdBgNVHQ4EFgQUsbFI5ljn
A/X38xBfILPDhNfv8b8wfQYDVR0jBHYwdIAUllUIBQJ4R56Hc3ZBMbwUOkfiKauh
WaRXMFUxCzAJBgNVBAYTAkdCMSQwIgYDVQQKExtDZXJ0aWZpY2F0ZSBUcmFuc3Bh
cmVuY3kgQ0ExDjAMBgNVBAgTBVdhbGVzMRAwDgYDVQQHEwdFcncgV2VuggEJMAkG
A1UdEwQCMAAwEwYKKwYBBAHWeQIEAwEB/wQCBQAwDQYJKoZIhvcNAQEFBQADgYEA
PjqbjpLJih8eaoFKsfXNYVYjAT9RbL6p8x/H64hk6ftpAS9n0qqZNq1nfbHRKEst
CC/btX/d0WWYDAlBYiFqfJ209JOcnosZw2vTkm0paYBsh4UzuKneBpEuvge4a7sA
ONyje0t6YvYwIb1QXu5nNxB8HKUsqOvhaQq3TO3c68c=
-----END CERTIFICATE-----
