Certificate:
    Data:
        Version: 3 (0x2)
        Serial Number: 7 (0x7)
    Signature Algorithm: sha1WithRSAEncryption
        Issuer: C=GB, O=Certificate Transparency CA, ST=Wales, L=Erw Wen
        Validity
            Not Before: Jun  1 00:00:00 2012 GMT
            Not After : Jun  1 00:00:00 2022 GMT
        Subject: C=GB, O=Certificate Transparency, ST=Wales, L=Erw Wen
        Subject Public Key Info:
            Public Key Algorithm: rsaEncryption
                Public-Key: (1024 bit)
                Modulus:
                    00:be:ef:98:e7:c2:68:77:ae:38:5f:75:32:5a:0c:
                    1d:32:9b:ed:f1:8f:aa:f4:d7:96:bf:04:7e:b7:e1:
                    ce:15:c9:5b:a2:f8:0e:e4:58:bd:7d:b8:6f:8a:4b:
                    25:21:91:a7:9b:d7:00:c3:8e:9c:03:89:b4:5c:d4:
                    dc:9a:12:0a:b2:1e:0c:b4:1c:d0:e7:28:05:a4:10:
                    cd:9c:5b:db:5d:49:27:72:6d:af:17:10:f6:01:87:
                    37:7e:a2:5b:1a:1e:39:ee:d0:b8:81:19:dc:15:4d:
                    c6:8f:7d:a8:e3:0c:af:15:8a:33:e6:c9:50:9f:4a:
                    05:b0:14:09:ff:5d:d8:7e:b5
                Exponent: 65537 (0x10001)
        X509v3 extensions:
            X509v3 Subject Key Identifier: 
                20:31:54:1A:F2:5C:05:FF:D8:65:8B:68:43:79:4F:5E:90:36:F7:B4
            X509v3 Authority Key Identifier: 
                keyid:5F:9D:88:0D:C8:73:E6:54:D4:F8:0D:D8:E6:B0:C1:24:B4:47:C3:55
                DirName:/C=GB/O=Certificate Transparency CA/ST=Wales/L=Erw Wen
                serial:00

            X509v3 Basic Constraints: 
                CA:FALSE
            1.3.6.1.4.1.11129.2.4.2: 
                .z.x.v........RG.ah2].\yY..........?t.d...=.'.......G0E. H/gQ.5..T6...d.=..AB...E0(....>..!.....:.r.....jh.S.}.A.}....Q.....
    Signature Algorithm: sha1WithRSAEncryption
         8a:0c:4b:ef:09:9d:47:92:79:af:a0:a2:8e:68:9f:91:e1:c4:
         42:1b:e2:d2:69:a2:ea:6c:a4:e8:21:5d:de:dd:ca:15:04:a1:
         1e:7c:87:c4:b7:7e:80:f0:e9:79:03:52:68:f2:7c:a2:0e:16:
         68:04:ae:55:6f:31:69:81:f9:6a:39:4a:b7:ab:fd:3e:25:5a:
         c0:04:45:13:fe:76:57:0c:67:95:ab:e4:70:31:33:d3:03:f8:
         9f:3a:fa:6b:bc:fc:51:73:19:df:d9:5b:93:42:41:21:1f:63:
         40:35:c3:d0:78:30:7a:68:c6:07:5a:2e:20:c8:9f:36:b8:91:
         0c:a0
-----BEGIN CERTIFICATE-----
MIIDWTCCAsKgAwIBAgIBBzANBgkqhkiG9w0BAQUFADBVMQswCQYDVQQGEwJHQjEk
MCIGA1UEChMbQ2VydGlmaWNhdGUgVHJhbnNwYXJlbmN5IENBMQ4wDAYDVQQIEwVX
YWxlczEQMA4GA1UEBxMHRXJ3IFdlbjAeFw0xMjA2MDEwMDAwMDBaFw0yMjA2MDEw
MDAwMDBaMFIxCzAJBgNVBAYTAkdCMSEwHwYDVQQKExhDZXJ0aWZpY2F0ZSBUcmFu
c3BhcmVuY3kxDjAMBgNVBAgTBVdhbGVzMRAwDgYDVQQHEwdFcncgV2VuMIGfMA0G
CSqGSIb3DQEBAQUAA4GNADCBiQKBgQC+75jnwmh3rjhfdTJaDB0ym+3xj6r015a/
BH634c4VyVui+A7kWL19uG+KSyUhkaeb1wDDjpwDibRc1NyaEgqyHgy0HNDnKAWk
EM2cW9tdSSdyba8XEPYBhzd+olsaHjnu0LiBGdwVTcaPfajjDK8VijPmyVCfSgWw
FAn/Xdh+tQIDAQABo4IBOjCCATYwHQYDVR0OBBYEFCAxVBryXAX/2GWLaEN5T16Q
Nve0MH0GA1UdIwR2MHSAFF+diA3Ic+ZU1PgN2OawwSS0R8NVoVmkVzBVMQswCQYD
VQQGEwJHQjEkMCIGA1UEChMbQ2VydGlmaWNhdGUgVHJhbnNwYXJlbmN5IENBMQ4w
DAYDVQQIEwVXYWxlczEQMA4GA1UEBxMHRXJ3IFdlboIBADAJBgNVHRMEAjAAMIGK
BgorBgEEAdZ5AgQCBHwEegB4AHYA3xwuwRUAlFJHqWFoMl3cXHlZ6PfG04j8AC4L
vT9012QAAAE92yffkwAABAMARzBFAiBIL2dRrzXbplQ2vh/WZA89v5pBQpSVkkUw
KI+j5eI+BgIhAOTtwNs6xXKx4vXoq2poBlOYfc9BAn3+/6EFUZ2J7b8IMA0GCSqG
SIb3DQEBBQUAA4GBAIoMS+8JnUeSea+goo5on5HhxEIb4tJpoupspOghXd7dyhUE
oR58h8S3foDw6XkDUmjyfKIOFmgErlVvMWmB+Wo5Srer/T4lWsAERRP+dlcMZ5Wr
5HAxM9MD+J86+mu8/FFzGd/ZW5NCQSEfY0A1w9B4MHpoxgdaLiDInza4kQyg
-----END CERTIFICATE-----
