Certificate:
    Data:
        Version: 3 (0x2)
        Serial Number: 3 (0x3)
    Signature Algorithm: sha1WithRSAEncryption
        Issuer: C=GB, O=Certificate Transparency Intermediate CA, ST=Wales, L=Erw Wen
        Validity
            Not Before: Jun  1 00:00:00 2012 GMT
            Not After : Jun  1 00:00:00 2022 GMT
        Subject: C=GB, O=Certificate Transparency, ST=Wales, L=Erw Wen
        Subject Public Key Info:
            Public Key Algorithm: rsaEncryption
                Public-Key: (1024 bit)
                Modulus:
                    00:d4:49:70:56:cd:fc:65:e1:34:2c:c3:df:6e:65:
                    4b:8a:f0:10:47:02:ac:d2:27:5c:7d:3f:b1:fc:43:
                    8a:89:b2:12:11:0d:64:19:bc:c1:3a:e4:7d:64:bb:
                    a2:41:e6:70:6b:9e:d6:27:f8:b3:4a:0d:7d:ff:1c:
                    44:b9:62:87:c5:4b:ea:9d:10:dc:01:7b:ce:b6:4f:
                    7b:6a:ff:3c:35:a4:74:af:ec:40:38:ab:36:40:b0:
                    cd:1f:b0:58:2e:c0:3b:17:9a:27:76:c8:c4:35:d1:
                    4a:b4:88:2d:59:d7:b7:24:fa:37:7c:a6:db:08:39:
                    21:73:f9:c6:05:6b:3a:ba:df
                Exponent: 65537 (0x10001)
        X509v3 extensions:
            X509v3 Subject Key Identifier: 
                32:DA:55:18:D8:7F:1D:26:EA:27:67:97:3C:0B:EF:28:6E:78:6A:4A
            X509v3 Authority Key Identifier: 
                keyid:96:55:08:05:02:78:47:9E:87:73:76:41:31:BC:14:3A:47:E2:29:AB
                DirName:/C=GB/O=Certificate Transparency CA/ST=Wales/L=Erw Wen
                serial:09

            X509v3 Basic Constraints: 
                CA:FALSE
            1.3.6.1.4.1.11129.2.4.2: 
                .z.x.v........RG.ah2].\yY..........?t.d...=.'.......G0E.!.......!...<..p.3..7K ...e.^..C.0. .v.GQ8..v.810M..C....n..O..|....
    Signature Algorithm: sha1WithRSAEncryption
         88:ee:4e:9e:5e:ed:6b:11:2c:c7:64:b1:51:ed:92:94:00:e9:
         40:67:89:c1:5f:bb:cf:cd:ab:2f:10:b4:00:23:41:39:e6:ce:
         65:c1:e5:1b:47:bf:7c:89:50:f8:0b:cc:d5:71:68:56:79:54:
         ed:35:b0:ce:93:46:06:5a:5e:ae:5b:f9:5d:41:da:8e:27:ce:
         e9:ee:ac:68:8f:4b:d3:43:f9:c2:88:83:27:ab:d8:b9:f6:8d:
         cb:1e:30:50:04:1d:31:bd:a8:e2:dd:6d:39:b3:66:4d:e5:ce:
         08:70:f5:fc:7e:6a:00:d6:ed:00:52:84:58:d9:53:d2:37:58:
         6d:73
-----BEGIN CERTIFICATE-----
MIIDZjCCAs+gAwIBAgIBAzANBgkqhkiG9w0BAQUFADBiMQswCQYDVQQGEwJHQjEx
MC8GA1UEChMoQ2VydGlmaWNhdGUgVHJhbnNwYXJlbmN5IEludGVybWVkaWF0ZSBD
QTEOMAwGA1UECBMFV2FsZXMxEDAOBgNVBAcTB0VydyBXZW4wHhcNMTIwNjAxMDAw
MDAwWhcNMjIwNjAxMDAwMDAwWjBSMQswCQYDVQQGEwJHQjEhMB8GA1UEChMYQ2Vy
dGlmaWNhdGUgVHJhbnNwYXJlbmN5MQ4wDAYDVQQIEwVXYWxlczEQMA4GA1UEBxMH
RXJ3IFdlbjCBnzANBgkqhkiG9w0BAQEFAAOBjQAwgYkCgYEA1ElwVs38ZeE0LMPf
bmVLivAQRwKs0idcfT+x/EOKibISEQ1kGbzBOuR9ZLuiQeZwa57WJ/izSg19/xxE
uWKHxUvqnRDcAXvOtk97av88NaR0r+xAOKs2QLDNH7BYLsA7F5ondsjENdFKtIgt
Wde3JPo3fKbbCDkhc/nGBWs6ut8CAwEAAaOCATowggE2MB0GA1UdDgQWBBQy2lUY
2H8dJuonZ5c8C+8obnhqSjB9BgNVHSMEdjB0gBSWVQgFAnhHnodzdkExvBQ6R+Ip
q6FZpFcwVTELMAkGA1UEBhMCR0IxJDAiBgNVBAoTG0NlcnRpZmljYXRlIFRyYW5z
cGFyZW5jeSBDQTEOMAwGA1UECBMFV2FsZXMxEDAOBgNVBAcTB0VydyBXZW6CAQkw
CQYDVR0TBAIwADCBigYKKwYBBAHWeQIEAgR8BHoAeAB2AN8cLsEVAJRSR6lhaDJd
3Fx5Wej3xtOI/AAuC70/dNdkAAABPdsn474AAAQDAEcwRQIhANn2Ggf+4CHjFZ88
ovVw2DP/ATdLIJbLpWWMXhb7Q+swAiALdv5HUTjYz3aDODEwTavwQ+sSE8luE/9P
o39808jcHzANBgkqhkiG9w0BAQUFAAOBgQCI7k6eXu1rESzHZLFR7ZKUAOlAZ4nB
X7vPzasvELQAI0E55s5lweUbR798iVD4C8zVcWhWeVTtNbDOk0YGWl6uW/ldQdqO
J87p7qxoj0vTQ/nCiIMnq9i59o3LHjBQBB0xvaji3W05s2ZN5c4IcPX8fmoA1u0A
UoRY2VPSN1htcw==
-----END CERTIFICATE-----
