Certificate:
    Data:
        Version: 3 (0x2)
        Serial Number: 6 (0x6)
    Signature Algorithm: sha1WithRSAEncryption
        Issuer: C=GB, O=Certificate Transparency CA, ST=Wales, L=Erw Wen
        Validity
            Not Before: Jun  1 00:00:00 2012 GMT
            Not After : Jun  1 00:00:00 2022 GMT
        Subject: C=GB, O=Certificate Transparency, ST=Wales, L=Erw Wen
        Subject Public Key Info:
            Public Key Algorithm: rsaEncryption
                Public-Key: (1024 bit)
                Modulus:
                    00:b1:fa:37:93:61:11:f8:79:2d:a2:08:1c:3f:e4:
                    19:25:00:85:31:dc:7f:2c:65:7b:d9:e1:de:47:04:
                    16:0b:4c:9f:19:d5:4a:da:44:70:40:4c:1c:51:34:
                    1b:8f:1f:75:38:dd:dd:28:d9:ac:a4:83:69:fc:56:
                    46:dd:cc:76:17:f8:16:8a:ae:5b:41:d4:33:31:fc:
                    a2:da:df:c8:04:d5:72:08:94:90:61:f9:ee:f9:02:
                    ca:47:ce:88:c6:44:e0:00:f0:6e:ee:cc:ab:dc:9d:
                    d2:f6:8a:22:cc:b0:9d:c7:6e:0d:bc:73:52:77:65:
                    b1:a3:7a:8c:67:62:53:dc:c1
                Exponent: 65537 (0x10001)
        X509v3 extensions:
            X509v3 Subject Key Identifier: 
                6A:0D:98:2A:3B:62:C4:4B:6D:2E:F4:E9:BB:7A:01:AA:9C:B7:98:E2
            X509v3 Authority Key Identifier: 
                keyid:5F:9D:88:0D:C8:73:E6:54:D4:F8:0D:D8:E6:B0:C1:24:B4:47:C3:55
                DirName:/C=GB/O=Certificate Transparency CA/ST=Wales/L=Erw Wen
                serial:00

            X509v3 Basic Constraints: 
                CA:FALSE
    Signature Algorithm: sha1WithRSAEncryption
         17:1c:d8:4a:ac:41:4a:9a:03:0f:22:aa:c8:f6:88:b0:81:b2:
         70:9b:84:8b:4e:55:11:40:6c:d7:07:fe:d0:28:59:7a:9f:ae:
         fc:2e:ee:29:78:d6:33:aa:ac:14:ed:32:35:19:7d:a8:7e:0f:
         71:b8:87:5f:1a:c9:e7:8b:28:17:49:dd:ed:d0:07:e3:ec:f5:
         06:45:f8:cb:f6:67:25:6c:d6:a1:64:7b:5e:13:20:3b:b8:58:
         2d:e7:d6:69:6f:65:6d:1c:60:b9:5f:45:6b:7f:cf:33:85:71:
         90:8f:1c:69:72:7d:24:c4:fc:cd:24:92:95:79:58:14:d1:da:
         c0:e6
-----BEGIN CERTIFICATE-----
MIICyjCCAjOgAwIBAgIBBjANBgkqhkiG9w0BAQUFADBVMQswCQYDVQQGEwJHQjEk
MCIGA1UEChMbQ2VydGlmaWNhdGUgVHJhbnNwYXJlbmN5IENBMQ4wDAYDVQQIEwVX
YWxlczEQMA4GA1UEBxMHRXJ3IFdlbjAeFw0xMjA2MDEwMDAwMDBaFw0yMjA2MDEw
MDAwMDBaMFIxCzAJBgNVBAYTAkdCMSEwHwYDVQQKExhDZXJ0aWZpY2F0ZSBUcmFu
c3BhcmVuY3kxDjAMBgNVBAgTBVdhbGVzMRAwDgYDVQQHEwdFcncgV2VuMIGfMA0G
CSqGSIb3DQEBAQUAA4GNADCBiQKBgQCx+jeTYRH4eS2iCBw/5BklAIUx3H8sZXvZ
4d5HBBYLTJ8Z1UraRHBATBxRNBuPH3U43d0o2aykg2n8VkbdzHYX+BaKrltB1DMx
/KLa38gE1XIIlJBh+e75AspHzojGROAA8G7uzKvcndL2iiLMsJ3Hbg28c1J3ZbGj
eoxnYlPcwQIDAQABo4GsMIGpMB0GA1UdDgQWBBRqDZgqO2LES20u9Om7egGqnLeY
4jB9BgNVHSMEdjB0gBRfnYgNyHPmVNT4DdjmsMEktEfDVaFZpFcwVTELMAkGA1UE
BhMCR0IxJDAiBgNVBAoTG0NlcnRpZmljYXRlIFRyYW5zcGFyZW5jeSBDQTEOMAwG
A1UECBMFV2FsZXMxEDAOBgNVBAcTB0VydyBXZW6CAQAwCQYDVR0TBAIwADANBgkq
hkiG9w0BAQUFAAOBgQAXHNhKrEFKmgMPIqrI9oiwgbJwm4SLTlURQGzXB/7QKFl6
n678Lu4peNYzqqwU7TI1GX2ofg9xuIdfGsnniygXSd3t0Afj7PUGRfjL9mclbNah
ZHteEyA7uFgt59Zpb2VtHGC5X0Vrf88zhXGQjxxpcn0kxPzNJJKVeVgU0drA5g==
-----END CERTIFICATE-----
