Certificate:
    Data:
        Version: 3 (0x2)
        Serial Number: 9 (0x9)
    Signature Algorithm: sha1WithRSAEncryption
        Issuer: C=GB, O=Certificate Transparency CA, ST=Wales, L=Erw Wen
        Validity
            Not Before: Jun  1 00:00:00 2012 GMT
            Not After : Jun  1 00:00:00 2022 GMT
        Subject: C=GB, O=Certificate Transparency Intermediate CA, ST=Wales, L=Erw Wen
        Subject Public Key Info:
            Public Key Algorithm: rsaEncryption
                Public-Key: (1024 bit)
                Modulus:
                    00:d7:6a:67:8d:11:6f:52:2e:55:ff:82:1c:90:64:
                    25:08:b7:07:4b:14:d7:71:15:90:64:f7:92:7e:fd:
                    ed:b8:71:35:a1:36:5e:e7:de:18:cb:d5:ce:86:5f:
                    86:0c:78:f4:33:b4:d0:d3:d3:40:77:02:e7:a3:ef:
                    54:2b:1d:fe:9b:ba:a7:cd:f9:4d:c5:97:5f:c7:29:
                    f8:6f:10:5f:38:1b:24:35:35:cf:9c:80:0f:5c:a7:
                    80:c1:d3:c8:44:00:ee:65:d1:6e:e9:cf:52:db:8a:
                    df:fe:50:f5:c4:93:35:0b:21:90:bf:50:d5:bc:36:
                    f3:ca:c5:a8:da:ae:92:cd:8b
                Exponent: 65537 (0x10001)
        X509v3 extensions:
            X509v3 Subject Key Identifier: 
                96:55:08:05:02:78:47:9E:87:73:76:41:31:BC:14:3A:47:E2:29:AB
            X509v3 Authority Key Identifier: 
                keyid:5F:9D:88:0D:C8:73:E6:54:D4:F8:0D:D8:E6:B0:C1:24:B4:47:C3:55
                DirName:/C=GB/O=Certificate Transparency CA/ST=Wales/L=Erw Wen
                serial:00

            X509v3 Basic Constraints: 
                CA:TRUE
    Signature Algorithm: sha1WithRSAEncryption
         22:06:da:b1:c6:6b:71:dc:e0:95:c3:f6:aa:2e:f7:2c:f7:76:
         1b:e7:ab:d7:fc:39:c3:1a:4c:fe:1b:d9:6d:67:34:ca:82:f2:
         2d:de:5a:0c:8b:bb:dd:82:5d:7b:6f:3e:76:12:ad:8d:b3:00:
         a7:e2:11:69:88:60:23:26:22:84:c3:aa:5d:21:91:ef:da:10:
         bf:92:35:d3:7b:3a:2a:34:0d:59:41:9b:94:a4:85:66:f3:fa:
         c3:cd:8b:53:d5:a4:e9:82:70:ea:d2:97:b0:72:10:f9:ce:4a:
         21:38:b1:88:11:14:3b:93:fa:4e:7a:87:dd:37:e1:38:5f:2c:
         29:08
-----BEGIN CERTIFICATE-----
MIIC3TCCAkagAwIBAgIBCTANBgkqhkiG9w0BAQUFADBVMQswCQYDVQQGEwJHQjEk
MCIGA1UEChMbQ2VydGlmaWNhdGUgVHJhbnNwYXJlbmN5IENBMQ4wDAYDVQQIEwVX
YWxlczEQMA4GA1UEBxMHRXJ3IFdlbjAeFw0xMjA2MDEwMDAwMDBaFw0yMjA2MDEw
MDAwMDBaMGIxCzAJBgNVBAYTAkdCMTEwLwYDVQQKEyhDZXJ0aWZpY2F0ZSBUcmFu
c3BhcmVuY3kgSW50ZXJtZWRpYXRlIENBMQ4wDAYDVQQIEwVXYWxlczEQMA4GA1UE
BxMHRXJ3IFdlbjCBnzANBgkqhkiG9w0BAQEFAAOBjQAwgYkCgYEA12pnjRFvUi5V
/4IckGQlCLcHSxTXcRWQZPeSfv3tuHE1oTZe594Yy9XOhl+GDHj0M7TQ09NAdwLn
o+9UKx3+m7qnzflNxZdfxyn4bxBfOBskNTXPnIAPXKeAwdPIRADuZdFu6c9S24rf
/lD1xJM1CyGQv1DVvDbzysWo2q6SzYsCAwEAAaOBrzCBrDAdBgNVHQ4EFgQUllUI
BQJ4R56Hc3ZBMbwUOkfiKaswfQYDVR0jBHYwdIAUX52IDchz5lTU+A3Y5rDBJLRH
w1WhWaRXMFUxCzAJBgNVBAYTAkdCMSQwIgYDVQQKExtDZXJ0aWZpY2F0ZSBUcmFu
c3BhcmVuY3kgQ0ExDjAMBgNVBAgTBVdhbGVzMRAwDgYDVQQHEwdFcncgV2VuggEA
MAwGA1UdEwQFMAMBAf8wDQYJKoZIhvcNAQEFBQADgYEAIgbascZrcdzglcP2qi73
LPd2G+er1/w5wxpM/hvZbWc0yoLyLd5aDIu73YJde28+dhKtjbMAp+IRaYhgIyYi
hMOqXSGR79oQv5I103s6KjQNWUGblKSFZvP6w82LU9Wk6YJw6tKXsHIQ+c5KITix
iBEUO5P6TnqH3TfhOF8sKQg=
-----END CERTIFICATE-----
-----BEGIN CERTIFICATE-----
MIIBJjCCARqgAwIBAgIRAPtpC/exOWDxXEPkDKRQ9mEwCwYJKoZIhvcNAQEFMA8x
DTALBgNVBAMTBFRlc3QwHhcNMTMwNDA1MTcwNDE2WhcNMTMwNDA1MTcwNDE3WjAP
MQ0wCwYDVQQDEwR0c2VUMBowDQYJKoZIhvcNAQEBBQADCQAwBgIBAwIBA6OBlDCB
kTCBjgYKKwYBBAHWeQIEAQEB/wR9BHsAeQB3AN8cLsEVAJRSR6lhaDJd3Fx5Wej3
xtOI/AAuC70/dNdkAAABPdsn4dwAAAQDAEgwRgIhAOZBuOl9wkkRJ+OkqpNvSxE3
i+2zG9XIH3ixqlGi9h+pAiEA1FZLTK0d4st6ctjMkzEpiAOqvnrch2gmhhUzONQf
ACUwAwYBAAMBAA==
-----END CERTIFICATE-----
