Certificate:
    Data:
        Version: 3 (0x2)
        Serial Number: 2 (0x2)
    Signature Algorithm: sha1WithRSAEncryption
        Issuer: C=GB, O=Certificate Transparency Intermediate CA, ST=Wales, L=Erw Wen
        Validity
            Not Before: Jun  1 00:00:00 2012 GMT
            Not After : Jun  1 00:00:00 2022 GMT
        Subject: C=GB, O=Certificate Transparency, ST=Wales, L=Erw Wen
        Subject Public Key Info:
            Public Key Algorithm: rsaEncryption
                Public-Key: (1024 bit)
                Modulus:
                    00:bb:27:2b:26:e5:de:b5:45:9d:4a:cc:a0:27:e8:
                    f1:2a:4d:83:9a:c3:73:0a:6a:10:9f:f7:e2:54:98:
                    dd:bd:3f:18:95:d0:8b:a4:1f:8d:e3:49:67:a3:a0:
                    86:ce:13:a9:0d:d5:ad:bb:54:18:4b:dc:08:e1:ac:
                    78:26:ad:b8:dc:9c:71:7b:fd:7d:a5:b4:1b:4d:b1:
                    73:6e:00:f1:da:c3:ce:c9:81:9c:cb:1a:28:ba:12:
                    0b:02:0a:82:0e:94:0d:d6:1f:95:b5:43:2a:4b:c0:
                    5d:08:18:f1:8c:e2:15:4e:b3:8d:2f:a7:d2:2d:72:
                    b9:76:e5:60:db:0c:7f:c7:7f
                Exponent: 65537 (0x10001)
        X509v3 extensions:
            X509v3 Subject Key Identifier: 
                B1:B1:48:E6:58:E7:03:F5:F7:F3:10:5F:20:B3:C3:84:D7:EF:F1:BF
            X509v3 Authority Key Identifier: 
                keyid:96:55:08:05:02:78:47:9E:87:73:76:41:31:BC:14:3A:47:E2:29:AB
                DirName:/C=GB/O=Certificate Transparency CA/ST=Wales/L=Erw Wen
                serial:09

            X509v3 Basic Constraints: 
                CA:FALSE
            1.3.6.1.4.1.11129.2.4.2: 
                .z.x.v........RG.ah2].\yY..........?t.d...=.'.......G0E.!...E..9-...W.....E.L..8V.......u.. ^&...."...)....4...O.......f...?
    Signature Algorithm: sha1WithRSAEncryption
         0f:95:a5:b4:e1:28:a9:14:b1:e8:8b:e8:b3:29:64:22:1b:58:
         f4:55:84:33:d0:20:a8:e2:46:cc:a6:5a:40:bc:bf:5f:2d:48:
         93:3e:bc:99:be:69:27:ca:75:64:72:fb:0b:dc:7f:50:5f:41:
         f4:62:f2:bc:19:d0:b2:99:c9:90:91:8d:f8:82:0f:3d:31:db:
         37:97:9e:8b:ad:56:3b:17:f0:0a:e6:7b:0f:87:31:c1:06:c9:
         43:a7:3b:f5:36:af:16:8a:fe:21:ef:4a:df:ca:e1:9a:3c:c0:
         74:89:99:92:bf:50:6b:c5:ce:1d:ec:aa:f0:7f:fe:eb:c8:05:
         c0:39
-----BEGIN CERTIFICATE-----
MIIDZjCCAs+gAwIBAgIBAjANBgkqhkiG9w0BAQUFADBiMQswCQYDVQQGEwJHQjEx
MC8GA1UEChMoQ2VydGlmaWNhdGUgVHJhbnNwYXJlbmN5IEludGVybWVkaWF0ZSBD
QTEOMAwGA1UECBMFV2FsZXMxEDAOBgNVBAcTB0VydyBXZW4wHhcNMTIwNjAxMDAw
MDAwWhcNMjIwNjAxMDAwMDAwWjBSMQswCQYDVQQGEwJHQjEhMB8GA1UEChMYQ2Vy
dGlmaWNhdGUgVHJhbnNwYXJlbmN5MQ4wDAYDVQQIEwVXYWxlczEQMA4GA1UEBxMH
RXJ3IFdlbjCBnzANBgkqhkiG9w0BAQEFAAOBjQAwgYkCgYEAuycrJuXetUWdSsyg
J+jxKk2DmsNzCmoQn/fiVJjdvT8YldCLpB+N40lno6CGzhOpDdWtu1QYS9wI4ax4
Jq243Jxxe/19pbQbTbFzbgDx2sPOyYGcyxoouhILAgqCDpQN1h+VtUMqS8BdCBjx
jOIVTrONL6fSLXK5duVg2wx/x38CAwEAAaOCATowggE2MB0GA1UdDgQWBBSxsUjm
WOcD9ffzEF8gs8OE1+/xvzB9BgNVHSMEdjB0gBSWVQgFAnhHnodzdkExvBQ6R+Ip
q6FZpFcwVTELMAkGA1UEBhMCR0IxJDAiBgNVBAoTG0NlcnRpZmljYXRlIFRyYW5z
cGFyZW5jeSBDQTEOMAwGA1UECBMFV2FsZXMxEDAOBgNVBAcTB0VydyBXZW6CAQkw
CQYDVR0TBAIwADCBigYKKwYBBAHWeQIEAgR8BHoAeAB2AN8cLsEVAJRSR6lhaDJd
3Fx5Wej3xtOI/AAuC70/dNdkAAABPdsn4qQAAAQDAEcwRQIhAKbTRRfzOS2exdJX
rfHFl9xFvUzTtzhWxhap+5nlrnWoAiBeJsjRx+Ii/ozaKbrrBKg07pfTT9gXGPGq
4M1m9LipPzANBgkqhkiG9w0BAQUFAAOBgQAPlaW04SipFLHoi+izKWQiG1j0VYQz
0CCo4kbMplpAvL9fLUiTPryZvmknynVkcvsL3H9QX0H0YvK8GdCymcmQkY34gg89
Mds3l56LrVY7F/AK5nsPhzHBBslDpzv1Nq8Wiv4h70rfyuGaPMB0iZmSv1Brxc4d
7Krwf/7ryAXAOQ==
-----END CERTIFICATE-----
