Certificate:
    Data:
        Version: 3 (0x2)
        Serial Number: 8 (0x8)
    Signature Algorithm: sha1WithRSAEncryption
        Issuer: C=GB, O=Certificate Transparency PreCA, ST=Wales, L=Erw Wen
        Validity
            Not Before: Jun  1 00:00:00 2012 GMT
            Not After : Jun  1 00:00:00 2022 GMT
        Subject: C=GB, O=Certificate Transparency, ST=Wales, L=Erw Wen
        Subject Public Key Info:
            Public Key Algorithm: rsaEncryption
                Public-Key: (1024 bit)
                Modulus:
                    00:af:ae:ea:ca:c5:1a:b7:ce:bd:f9:ea:ca:e7:dd:
                    17:52:95:e1:93:95:5a:17:98:9a:ef:8d:97:ab:7c:
                    df:f7:76:10:93:c0:b8:23:d2:a4:e3:a5:1a:17:b8:
                    6f:28:16:2b:66:a2:53:89:35:eb:ec:dc:10:36:23:
                    3d:a2:dd:65:31:b0:c6:3b:cc:68:76:1e:bd:c8:54:
                    03:7b:77:39:92:46:b8:70:a7:b7:2b:14:c9:b1:66:
                    7d:e0:9a:96:40:ed:9f:3f:3c:72:5d:95:0b:4d:26:
                    55:98:69:fe:7f:1e:91:9a:66:eb:76:d3:5c:01:17:
                    c6:bc:d0:d8:cf:d2:10:28:b1
                Exponent: 65537 (0x10001)
        X509v3 extensions:
            X509v3 Subject Key Identifier: 
                61:2C:64:EF:AC:79:B7:28:39:7C:9D:93:E6:DF:86:46:5F:A7:6A:88
            X509v3 Authority Key Identifier: 
                keyid:07:EF:B3:40:23:34:F7:9E:FE:23:80:83:B2:E2:0D:5C:EA:10:7D:40
                DirName:/C=GB/O=Certificate Transparency CA/ST=Wales/L=Erw Wen
                serial:01

            X509v3 Basic Constraints: 
                CA:FALSE
            1.3.6.1.4.1.11129.2.4.3: critical
                ..
    Signature Algorithm: sha1WithRSAEncryption
         42:3e:6f:9d:bd:59:3c:c1:1d:59:a8:61:3c:af:7f:0a:08:e5:
         9a:f3:43:96:c0:9a:5c:f6:f8:f2:2d:9e:4c:8c:a9:a7:aa:eb:
         69:20:c4:9d:c9:8e:9f:c4:97:33:0c:6c:63:e6:b6:24:f8:93:
         9b:36:17:d6:0b:d5:d9:6e:84:83:27:7b:9c:b1:fe:8c:1a:29:
         1d:a9:88:8e:ee:c3:e4:84:1a:ab:d6:ee:58:55:c7:b4:d5:d0:
         c2:8a:84:30:4f:5c:48:8e:6f:bf:6c:db:8f:a7:f4:a9:f0:19:
         c9:ad:fe:c4:8c:a7:74:f0:34:ed:5c:ca:f9:56:53:05:a8:6e:
         b6:56
-----BEGIN CERTIFICATE-----
MIIC4jCCAkugAwIBAgIBCDANBgkqhkiG9w0BAQUFADBYMQswCQYDVQQGEwJHQjEn
MCUGA1UEChMeQ2VydGlmaWNhdGUgVHJhbnNwYXJlbmN5IFByZUNBMQ4wDAYDVQQI
EwVXYWxlczEQMA4GA1UEBxMHRXJ3IFdlbjAeFw0xMjA2MDEwMDAwMDBaFw0yMjA2
MDEwMDAwMDBaMFIxCzAJBgNVBAYTAkdCMSEwHwYDVQQKExhDZXJ0aWZpY2F0ZSBU
cmFuc3BhcmVuY3kxDjAMBgNVBAgTBVdhbGVzMRAwDgYDVQQHEwdFcncgV2VuMIGf
MA0GCSqGSIb3DQEBAQUAA4GNADCBiQKBgQCvrurKxRq3zr356srn3RdSleGTlVoX
mJrvjZerfN/3dhCTwLgj0qTjpRoXuG8oFitmolOJNevs3BA2Iz2i3WUxsMY7zGh2
Hr3IVAN7dzmSRrhwp7crFMmxZn3gmpZA7Z8/PHJdlQtNJlWYaf5/HpGaZut201wB
F8a80NjP0hAosQIDAQABo4HBMIG+MB0GA1UdDgQWBBRhLGTvrHm3KDl8nZPm34ZG
X6dqiDB9BgNVHSMEdjB0gBQH77NAIzT3nv4jgIOy4g1c6hB9QKFZpFcwVTELMAkG
A1UEBhMCR0IxJDAiBgNVBAoTG0NlcnRpZmljYXRlIFRyYW5zcGFyZW5jeSBDQTEO
MAwGA1UECBMFV2FsZXMxEDAOBgNVBAcTB0VydyBXZW6CAQEwCQYDVR0TBAIwADAT
BgorBgEEAdZ5AgQDAQH/BAIFADANBgkqhkiG9w0BAQUFAAOBgQBCPm+dvVk8wR1Z
qGE8r38KCOWa80OWwJpc9vjyLZ5MjKmnqutpIMSdyY6fxJczDGxj5rYk+JObNhfW
C9XZboSDJ3ucsf6MGikdqYiO7sPkhBqr1u5YVce01dDCioQwT1xIjm+/bNuPp/Sp
8BnJrf7EjKd08DTtXMr5VlMFqG62Vg==
-----END CERTIFICATE-----
