Certificate:
    Data:
        Version: 3 (0x2)
        Serial Number: 3 (0x3)
    Signature Algorithm: sha1WithRSAEncryption
        Issuer: C=GB, O=Certificate Transparency Intermediate PreCA, ST=Wales, L=Erw Wen
        Validity
            Not Before: Jun  1 00:00:00 2012 GMT
            Not After : Jun  1 00:00:00 2022 GMT
        Subject: C=GB, O=Certificate Transparency, ST=Wales, L=Erw Wen
        Subject Public Key Info:
            Public Key Algorithm: rsaEncryption
                Public-Key: (1024 bit)
                Modulus:
                    00:d4:49:70:56:cd:fc:65:e1:34:2c:c3:df:6e:65:
                    4b:8a:f0:10:47:02:ac:d2:27:5c:7d:3f:b1:fc:43:
                    8a:89:b2:12:11:0d:64:19:bc:c1:3a:e4:7d:64:bb:
                    a2:41:e6:70:6b:9e:d6:27:f8:b3:4a:0d:7d:ff:1c:
                    44:b9:62:87:c5:4b:ea:9d:10:dc:01:7b:ce:b6:4f:
                    7b:6a:ff:3c:35:a4:74:af:ec:40:38:ab:36:40:b0:
                    cd:1f:b0:58:2e:c0:3b:17:9a:27:76:c8:c4:35:d1:
                    4a:b4:88:2d:59:d7:b7:24:fa:37:7c:a6:db:08:39:
                    21:73:f9:c6:05:6b:3a:ba:df
                Exponent: 65537 (0x10001)
        X509v3 extensions:
            X509v3 Subject Key Identifier: 
                32:DA:55:18:D8:7F:1D:26:EA:27:67:97:3C:0B:EF:28:6E:78:6A:4A
            X509v3 Authority Key Identifier: 
                keyid:C3:1B:10:3A:01:BA:D5:E0:AB:A6:4B:A7:52:40:96:12:71:3D:29:32
                DirName:/C=GB/O=Certificate Transparency Intermediate CA/ST=Wales/L=Erw Wen
                serial:00

            X509v3 Basic Constraints: 
                CA:FALSE
            1.3.6.1.4.1.11129.2.4.3: critical
                ..
    Signature Algorithm: sha1WithRSAEncryption
         80:e9:cb:ae:5b:ae:6a:41:0b:cd:40:2f:41:0f:db:e1:6b:64:
         db:37:e9:25:4c:80:99:d8:2a:1f:3c:42:04:e6:4b:b3:92:1c:
         ad:82:5b:bc:4c:37:31:90:d9:a2:20:54:32:4d:f1:b6:ff:c5:
         05:39:94:a6:63:36:5a:14:82:3d:40:76:04:f7:0b:07:63:06:
         ca:4a:64:ca:c3:4e:19:ff:c2:60:fd:0b:bf:f9:98:8a:f6:d3:
         93:50:d8:d4:ce:b3:ce:3a:e6:1e:30:27:e7:df:4c:26:5e:ec:
         d9:7b:76:61:5b:30:9d:b9:21:ab:6b:02:4a:b9:2d:0e:50:f8:
         0d:12
-----BEGIN CERTIFICATE-----
MIIC/zCCAmigAwIBAgIBAzANBgkqhkiG9w0BAQUFADBlMQswCQYDVQQGEwJHQjE0
MDIGA1UEChMrQ2VydGlmaWNhdGUgVHJhbnNwYXJlbmN5IEludGVybWVkaWF0ZSBQ
cmVDQTEOMAwGA1UECBMFV2FsZXMxEDAOBgNVBAcTB0VydyBXZW4wHhcNMTIwNjAx
MDAwMDAwWhcNMjIwNjAxMDAwMDAwWjBSMQswCQYDVQQGEwJHQjEhMB8GA1UEChMY
Q2VydGlmaWNhdGUgVHJhbnNwYXJlbmN5MQ4wDAYDVQQIEwVXYWxlczEQMA4GA1UE
BxMHRXJ3IFdlbjCBnzANBgkqhkiG9w0BAQEFAAOBjQAwgYkCgYEA1ElwVs38ZeE0
LMPfbmVLivAQRwKs0idcfT+x/EOKibISEQ1kGbzBOuR9ZLuiQeZwa57WJ/izSg19
/xxEuWKHxUvqnRDcAXvOtk97av88NaR0r+xAOKs2QLDNH7BYLsA7F5ondsjENdFK
tIgtWde3JPo3fKbbCDkhc/nGBWs6ut8CAwEAAaOB0TCBzjAdBgNVHQ4EFgQUMtpV
GNh/HSbqJ2eXPAvvKG54akowgYwGA1UdIwSBhDCBgYAUwxsQOgG61eCrpkunUkCW
EnE9KTKhZqRkMGIxCzAJBgNVBAYTAkdCMTEwLwYDVQQKEyhDZXJ0aWZpY2F0ZSBU
cmFuc3BhcmVuY3kgSW50ZXJtZWRpYXRlIENBMQ4wDAYDVQQIEwVXYWxlczEQMA4G
A1UEBxMHRXJ3IFdlboIBADAJBgNVHRMEAjAAMBMGCisGAQQB1nkCBAMBAf8EAgUA
MA0GCSqGSIb3DQEBBQUAA4GBAIDpy65brmpBC81AL0EP2+FrZNs36SVMgJnYKh88
QgTmS7OSHK2CW7xMNzGQ2aIgVDJN8bb/xQU5lKZjNloUgj1AdgT3CwdjBspKZMrD
Thn/wmD9C7/5mIr205NQ2NTOs8465h4wJ+ffTCZe7Nl7dmFbMJ25IatrAkq5LQ5Q
+A0S
-----END CERTIFICATE-----
