Certificate:
    Data:
        Version: 3 (0x2)
        Serial Number: 1 (0x1)
    Signature Algorithm: sha1WithRSAEncryption
        Issuer: C=GB, O=Certificate Transparency Intermediate CA, ST=Wales, L=Erw Wen
        Validity
            Not Before: Jun  1 00:00:00 2012 GMT
            Not After : Jun  1 00:00:00 2022 GMT
        Subject: C=GB, O=Certificate Transparency, ST=Wales, L=Erw Wen
        Subject Public Key Info:
            Public Key Algorithm: rsaEncryption
                Public-Key: (1024 bit)
                Modulus:
                    00:a7:da:2c:9c:fb:d0:8a:1a:54:54:82:50:04:b0:
                    55:92:6f:91:8d:b7:52:60:03:8b:72:66:2e:29:cd:
                    81:72:1d:7a:6f:94:43:0a:86:79:3c:7a:69:15:43:
                    8b:aa:30:0c:a4:b6:7f:66:80:70:ab:81:ea:fc:5b:
                    33:10:78:4a:d8:3f:c1:d9:a6:79:49:16:e3:e7:db:
                    c8:64:50:d5:bc:de:f8:92:ef:ae:68:00:39:d6:cf:
                    df:da:55:ad:c6:f6:bc:f8:b6:c4:d2:20:c7:94:96:
                    69:8a:be:bb:64:1a:73:59:a5:2c:03:86:1b:4d:44:
                    5c:ff:14:2e:42:1d:d7:40:ef
                Exponent: 65537 (0x10001)
        X509v3 extensions:
            X509v3 Subject Key Identifier: 
                48:18:40:C3:9F:8D:C8:93:E6:3F:52:CD:FA:FD:17:FE:08:FC:F4:CF
            X509v3 Authority Key Identifier: 
                keyid:96:55:08:05:02:78:47:9E:87:73:76:41:31:BC:14:3A:47:E2:29:AB
                DirName:/C=GB/O=Certificate Transparency CA/ST=Wales/L=Erw Wen
                serial:09

            X509v3 Basic Constraints: 
                CA:FALSE
    Signature Algorithm: sha1WithRSAEncryption
         68:7b:23:59:1b:4a:cc:fd:1e:c2:cc:88:f2:7d:72:4b:e1:74:
         69:b5:f4:c7:1c:c1:b5:1f:9c:89:cd:4d:1c:bc:88:ee:56:a0:
         4c:ca:e5:e3:c4:7e:e3:db:77:96:92:df:b7:32:be:7b:38:c7:
         41:db:ce:fd:f2:99:4c:2a:b1:e0:1a:a6:7f:96:98:b2:4d:cf:
         e8:9d:cc:8f:ca:cb:c6:49:80:1a:de:50:2b:44:73:7d:6b:42:
         6a:17:3c:ed:d4:4d:99:37:ed:2f:17:c7:9b:44:1e:84:5e:80:
         54:4d:05:52:b2:bc:f2:db:c3:d6:5c:a2:76:92:99:66:52:62:
         2b:78
-----BEGIN CERTIFICATE-----
MIIC1zCCAkCgAwIBAgIBATANBgkqhkiG9w0BAQUFADBiMQswCQYDVQQGEwJHQjEx
MC8GA1UEChMoQ2VydGlmaWNhdGUgVHJhbnNwYXJlbmN5IEludGVybWVkaWF0ZSBD
QTEOMAwGA1UECBMFV2FsZXMxEDAOBgNVBAcTB0VydyBXZW4wHhcNMTIwNjAxMDAw
MDAwWhcNMjIwNjAxMDAwMDAwWjBSMQswCQYDVQQGEwJHQjEhMB8GA1UEChMYQ2Vy
dGlmaWNhdGUgVHJhbnNwYXJlbmN5MQ4wDAYDVQQIEwVXYWxlczEQMA4GA1UEBxMH
RXJ3IFdlbjCBnzANBgkqhkiG9w0BAQEFAAOBjQAwgYkCgYEAp9osnPvQihpUVIJQ
BLBVkm+RjbdSYAOLcmYuKc2Bch16b5RDCoZ5PHppFUOLqjAMpLZ/ZoBwq4Hq/Fsz
EHhK2D/B2aZ5SRbj59vIZFDVvN74ku+uaAA51s/f2lWtxva8+LbE0iDHlJZpir67
ZBpzWaUsA4YbTURc/xQuQh3XQO8CAwEAAaOBrDCBqTAdBgNVHQ4EFgQUSBhAw5+N
yJPmP1LN+v0X/gj89M8wfQYDVR0jBHYwdIAUllUIBQJ4R56Hc3ZBMbwUOkfiKauh
WaRXMFUxCzAJBgNVBAYTAkdCMSQwIgYDVQQKExtDZXJ0aWZpY2F0ZSBUcmFuc3Bh
cmVuY3kgQ0ExDjAMBgNVBAgTBVdhbGVzMRAwDgYDVQQHEwdFcncgV2VuggEJMAkG
A1UdEwQCMAAwDQYJKoZIhvcNAQEFBQADgYEAaHsjWRtKzP0ewsyI8n1yS+F0abX0
xxzBtR+cic1NHLyI7lagTMrl48R+49t3lpLftzK+ezjHQdvO/fKZTCqx4Bqmf5aY
sk3P6J3Mj8rLxkmAGt5QK0RzfWtCahc87dRNmTftLxfHm0QehF6AVE0FUrK88tvD
1lyidpKZZlJiK3g=
-----END CERTIFICATE-----
