Certificate:
    Data:
        Version: 3 (0x2)
        Serial Number: 2 (0x2)
        Signature Algorithm: sha1WithRSAEncryption
        Issuer: C=US, O=Prometheus, OU=Prometheus Certificate Authority, CN=Prometheus Root CA
        Validity
            Not Before: Apr  5 08:00:37 2019 GMT
            Not After : Mar 26 08:00:37 2059 GMT
        Subject: C=US, O=Prometheus, OU=Prometheus Certificate Authority, CN=Prometheus TLS CA
        Subject Public Key Info:
            Public Key Algorithm: rsaEncryption
                RSA Public-Key: (2048 bit)
                Modulus:
                    00:aa:d2:34:6b:ed:f1:f4:01:08:e5:00:9f:75:c8:
                    ba:fc:4b:72:c6:04:93:af:f1:f6:b5:ce:01:0d:c6:
                    bd:d3:16:98:9d:e5:51:56:12:58:16:ee:18:6e:f0:
                    68:a9:42:16:65:cf:e3:31:f5:90:79:9d:13:32:87:
                    3b:1f:65:fd:84:88:a4:56:3d:26:54:69:05:27:5a:
                    ea:89:02:e7:31:9b:7d:7f:76:93:54:70:bc:17:92:
                    06:9f:9f:90:4a:8a:cf:82:a7:7b:7c:71:c4:fa:34:
                    56:00:32:1a:85:c5:f8:e4:4a:63:43:37:9d:60:84:
                    4d:78:6e:87:12:c4:2b:1f:93:a5:fe:cc:5e:f1:df:
                    c1:97:ff:b7:3e:20:38:1d:71:15:11:ec:6c:7a:cc:
                    0e:87:52:31:b1:b9:74:c3:07:1c:42:4b:1e:c1:17:
                    bc:e4:13:b7:b0:20:2e:c4:07:93:bd:a8:11:f9:da:
                    a7:d0:df:4a:48:be:9b:6d:65:c3:ae:58:56:c0:9f:
                    17:c5:d8:32:b1:04:22:fb:5b:18:f6:20:10:50:ec:
                    2d:10:4f:cc:48:8f:f2:75:dd:33:a4:0e:f5:55:da:
                    2c:89:a1:3a:52:bb:11:11:0b:97:27:17:73:35:da:
                    10:71:b3:9f:a8:42:91:e6:3a:66:00:f9:e5:11:8f:
                    5b:57
                Exponent: 65537 (0x10001)
        X509v3 extensions:
            X509v3 Key Usage: critical
                Certificate Sign, CRL Sign
            X509v3 Basic Constraints: critical
                CA:TRUE, pathlen:0
            X509v3 Subject Key Identifier: 
                4D:02:BF:71:95:6A:AA:58:C5:9C:B8:83:67:5E:64:16:99:E1:2A:9E
            X509v3 Authority Key Identifier: 
                keyid:3C:1E:A8:C6:4C:05:4D:20:EC:88:DB:29:D4:7B:F9:12:5D:CE:EA:1A

            Authority Information Access: 
                CA Issuers - URI:https://example.com/ca/root-ca.cer

            X509v3 CRL Distribution Points: 

                Full Name:
                  URI:https://example.com/ca/root-ca.crl

    Signature Algorithm: sha1WithRSAEncryption
         63:fc:ba:30:a5:05:d6:76:14:f1:77:38:b1:41:6f:81:d9:b4:
         02:fd:bc:e5:f6:d9:e6:73:e0:71:cf:4c:fb:13:b5:6b:bd:b9:
         c6:f6:28:18:36:e1:8c:d9:93:b3:78:4a:3d:39:1b:f4:fb:69:
         75:24:ae:e1:a0:2f:94:05:bf:10:3c:3e:d2:2b:a8:f3:31:25:
         2e:ed:13:ad:60:5d:22:9a:26:15:20:86:98:73:4c:f6:4b:48:
         b8:1f:67:ba:4e:c9:47:ed:85:dc:38:dc:02:0c:fb:54:d5:2e:
         6c:b4:95:18:51:d1:ae:ea:e8:fb:b4:19:50:04:bc:31:7e:51:
         9e:85:29:4d:c8:f7:26:d6:d6:8d:35:2d:9e:e2:06:16:38:e2:
         56:80:ec:f3:a3:34:e3:28:c4:e8:10:d0:8a:a6:6f:20:9a:b9:
         dc:b9:90:6b:ba:8a:27:2c:29:72:28:55:e7:59:a6:a7:90:ec:
         32:e8:d0:26:4a:c1:44:dd:20:bf:dc:4d:1e:7e:cc:e5:a2:5b:
         e8:df:3d:4b:01:aa:48:56:17:e9:29:d8:71:83:05:36:8c:11:
         4f:77:b8:95:20:b7:c7:21:06:c2:87:97:b4:6b:d3:f7:23:ba:
         4d:5f:15:d1:0c:4d:6e:f1:6a:9d:57:5c:02:6a:d7:31:18:ef:
         5c:fc:f8:04
-----BEGIN CERTIFICATE-----
MIIELTCCAxWgAwIBAgIBAjANBgkqhkiG9w0BAQUFADBqMQswCQYDVQQGEwJVUzET
MBEGA1UECgwKUHJvbWV0aGV1czEpMCcGA1UECwwgUHJvbWV0aGV1cyBDZXJ0aWZp
Y2F0ZSBBdXRob3JpdHkxGzAZBgNVBAMMElByb21ldGhldXMgUm9vdCBDQTAgFw0x
OTA0MDUwODAwMzdaGA8yMDU5MDMyNjA4MDAzN1owaTELMAkGA1UEBhMCVVMxEzAR
BgNVBAoMClByb21ldGhldXMxKTAnBgNVBAsMIFByb21ldGhldXMgQ2VydGlmaWNh
dGUgQXV0aG9yaXR5MRowGAYDVQQDDBFQcm9tZXRoZXVzIFRMUyBDQTCCASIwDQYJ
KoZIhvcNAQEBBQADggEPADCCAQoCggEBAKrSNGvt8fQBCOUAn3XIuvxLcsYEk6/x
9rXOAQ3GvdMWmJ3lUVYSWBbuGG7waKlCFmXP4zH1kHmdEzKHOx9l/YSIpFY9JlRp
BSda6okC5zGbfX92k1RwvBeSBp+fkEqKz4Kne3xxxPo0VgAyGoXF+ORKY0M3nWCE
TXhuhxLEKx+Tpf7MXvHfwZf/tz4gOB1xFRHsbHrMDodSMbG5dMMHHEJLHsEXvOQT
t7AgLsQHk72oEfnap9DfSki+m21lw65YVsCfF8XYMrEEIvtbGPYgEFDsLRBPzEiP
8nXdM6QO9VXaLImhOlK7ERELlycXczXaEHGzn6hCkeY6ZgD55RGPW1cCAwEAAaOB
3DCB2TAOBgNVHQ8BAf8EBAMCAQYwEgYDVR0TAQH/BAgwBgEB/wIBADAdBgNVHQ4E
FgQUTQK/cZVqqljFnLiDZ15kFpnhKp4wHwYDVR0jBBgwFoAUPB6oxkwFTSDsiNsp
1Hv5El3O6howPgYIKwYBBQUHAQEEMjAwMC4GCCsGAQUFBzAChiJodHRwczovL2V4
YW1wbGUuY29tL2NhL3Jvb3QtY2EuY2VyMDMGA1UdHwQsMCowKKAmoCSGImh0dHBz
Oi8vZXhhbXBsZS5jb20vY2Evcm9vdC1jYS5jcmwwDQYJKoZIhvcNAQEFBQADggEB
AGP8ujClBdZ2FPF3OLFBb4HZtAL9vOX22eZz4HHPTPsTtWu9ucb2KBg24YzZk7N4
Sj05G/T7aXUkruGgL5QFvxA8PtIrqPMxJS7tE61gXSKaJhUghphzTPZLSLgfZ7pO
yUfthdw43AIM+1TVLmy0lRhR0a7q6Pu0GVAEvDF+UZ6FKU3I9ybW1o01LZ7iBhY4
4laA7POjNOMoxOgQ0IqmbyCaudy5kGu6iicsKXIoVedZpqeQ7DLo0CZKwUTdIL/c
TR5+zOWiW+jfPUsBqkhWF+kp2HGDBTaMEU93uJUgt8chBsKHl7Rr0/cjuk1fFdEM
TW7xap1XXAJq1zEY71z8+AQ=
-----END CERTIFICATE-----
Certificate:
    Data:
        Version: 3 (0x2)
        Serial Number: 1 (0x1)
        Signature Algorithm: sha1WithRSAEncryption
        Issuer: C=US, O=Prometheus, OU=Prometheus Certificate Authority, CN=Prometheus Root CA
        Validity
            Not Before: Apr  5 07:55:00 2019 GMT
            Not After : Mar 26 07:55:00 2059 GMT
        Subject: C=US, O=Prometheus, OU=Prometheus Certificate Authority, CN=Prometheus Root CA
        Subject Public Key Info:
            Public Key Algorithm: rsaEncryption
                RSA Public-Key: (2048 bit)
                Modulus:
                    00:bf:b9:e2:ab:5f:61:22:e1:4e:cd:ee:da:b0:26:
                    2e:bb:b0:7e:1c:ce:10:be:16:29:35:0c:0c:1d:93:
                    01:29:2a:f6:f9:c2:6e:5c:10:44:ca:f8:dc:ad:7a:
                    06:64:0f:8a:18:ad:b2:a2:94:49:c9:ba:8c:45:94:
                    7c:d9:e0:11:45:d8:16:79:a2:20:9f:8c:63:60:72:
                    2a:5b:f9:66:80:ac:85:67:01:5a:eb:91:c1:d2:88:
                    87:9e:4c:18:c9:f2:f0:7a:18:c0:e6:ab:2c:78:de:
                    5f:b2:22:4e:94:9c:f5:cd:e6:e2:33:30:e9:20:10:
                    a6:a1:75:eb:59:ab:45:a9:f7:3e:54:40:ae:05:25:
                    be:74:c5:3a:fd:af:73:16:60:45:7c:4a:e0:0e:0d:
                    a1:15:7f:9a:1f:c2:a7:04:ad:ef:b3:e4:f6:00:2c:
                    4e:0b:04:90:49:ee:d3:db:a6:12:c4:91:0b:32:4f:
                    11:84:c7:c4:8a:ef:51:66:7a:b0:20:2f:cb:95:8d:
                    96:57:60:66:5e:f9:4f:5a:94:9c:71:ad:eb:ca:70:
                    3e:62:06:c2:3a:29:f8:9e:86:af:da:07:78:f8:31:
                    af:42:48:49:9e:4a:df:1b:27:1f:44:35:81:6d:fa:
                    7a:c5:6a:0a:35:23:c7:c4:d5:fe:c9:9e:61:c9:30:
                    cd:1f
                Exponent: 65537 (0x10001)
        X509v3 extensions:
            X509v3 Key Usage: critical
                Certificate Sign, CRL Sign
            X509v3 Basic Constraints: critical
                CA:TRUE
            X509v3 Subject Key Identifier: 
                3C:1E:A8:C6:4C:05:4D:20:EC:88:DB:29:D4:7B:F9:12:5D:CE:EA:1A
            X509v3 Authority Key Identifier: 
                keyid:3C:1E:A8:C6:4C:05:4D:20:EC:88:DB:29:D4:7B:F9:12:5D:CE:EA:1A

    Signature Algorithm: sha1WithRSAEncryption
         56:2f:79:e5:12:91:f5:19:a7:d1:32:28:fd:e3:9d:8f:e1:3c:
         bb:a3:a5:f2:55:8a:03:ad:2c:1d:18:82:e1:7f:19:75:d9:47:
         5b:e7:7c:e4:a5:e0:eb:dc:7e:24:a3:7d:99:1a:cf:39:ba:a5:
         b4:b8:45:68:83:cf:70:ad:56:f2:34:73:65:fc:6c:b0:53:9a:
         79:04:f7:3e:7e:4b:22:1b:e7:76:23:20:bc:9c:05:a2:5d:01:
         d2:f0:09:49:17:b2:61:74:1a:5b:f4:e0:fd:ce:11:ba:13:4a:
         e6:07:11:7d:30:e2:11:87:ee:33:1a:68:de:67:f4:ac:b5:58:
         1a:ac:cf:7a:2d:fd:c3:44:5b:4b:cd:6c:ff:f6:49:b4:55:4a:
         09:a0:92:2d:57:3b:69:85:54:3e:e9:ec:ef:b2:a5:7a:29:75:
         2b:f8:eb:4b:d4:cf:68:ee:3e:c8:63:7e:12:eb:e4:2f:63:a3:
         a7:c8:0f:e9:39:ff:5c:29:65:7f:25:f0:42:bf:07:ba:06:b8:
         5e:d6:56:ba:f8:67:56:1b:42:aa:b3:04:d8:6e:88:10:a5:70:
         b5:81:04:a4:90:a3:f0:83:4d:0c:6b:12:5d:a4:4c:83:5a:ff:
         a8:7a:86:61:ff:0f:4c:e5:0f:17:d1:64:3c:bd:d9:22:7e:b7:
         fa:9b:83:ba
-----BEGIN CERTIFICATE-----
MIIDtDCCApygAwIBAgIBATANBgkqhkiG9w0BAQUFADBqMQswCQYDVQQGEwJVUzET
MBEGA1UECgwKUHJvbWV0aGV1czEpMCcGA1UECwwgUHJvbWV0aGV1cyBDZXJ0aWZp
Y2F0ZSBBdXRob3JpdHkxGzAZBgNVBAMMElByb21ldGhldXMgUm9vdCBDQTAgFw0x
OTA0MDUwNzU1MDBaGA8yMDU5MDMyNjA3NTUwMFowajELMAkGA1UEBhMCVVMxEzAR
BgNVBAoMClByb21ldGhldXMxKTAnBgNVBAsMIFByb21ldGhldXMgQ2VydGlmaWNh
dGUgQXV0aG9yaXR5MRswGQYDVQQDDBJQcm9tZXRoZXVzIFJvb3QgQ0EwggEiMA0G
CSqGSIb3DQEBAQUAA4IBDwAwggEKAoIBAQC/ueKrX2Ei4U7N7tqwJi67sH4czhC+
Fik1DAwdkwEpKvb5wm5cEETK+NytegZkD4oYrbKilEnJuoxFlHzZ4BFF2BZ5oiCf
jGNgcipb+WaArIVnAVrrkcHSiIeeTBjJ8vB6GMDmqyx43l+yIk6UnPXN5uIzMOkg
EKahdetZq0Wp9z5UQK4FJb50xTr9r3MWYEV8SuAODaEVf5ofwqcEre+z5PYALE4L
BJBJ7tPbphLEkQsyTxGEx8SK71FmerAgL8uVjZZXYGZe+U9alJxxrevKcD5iBsI6
Kfiehq/aB3j4Ma9CSEmeSt8bJx9ENYFt+nrFago1I8fE1f7JnmHJMM0fAgMBAAGj
YzBhMA4GA1UdDwEB/wQEAwIBBjAPBgNVHRMBAf8EBTADAQH/MB0GA1UdDgQWBBQ8
HqjGTAVNIOyI2ynUe/kSXc7qGjAfBgNVHSMEGDAWgBQ8HqjGTAVNIOyI2ynUe/kS
Xc7qGjANBgkqhkiG9w0BAQUFAAOCAQEAVi955RKR9Rmn0TIo/eOdj+E8u6Ol8lWK
A60sHRiC4X8ZddlHW+d85KXg69x+JKN9mRrPObqltLhFaIPPcK1W8jRzZfxssFOa
eQT3Pn5LIhvndiMgvJwFol0B0vAJSReyYXQaW/Tg/c4RuhNK5gcRfTDiEYfuMxpo
3mf0rLVYGqzPei39w0RbS81s//ZJtFVKCaCSLVc7aYVUPuns77Kleil1K/jrS9TP
aO4+yGN+EuvkL2Ojp8gP6Tn/XCllfyXwQr8Huga4XtZWuvhnVhtCqrME2G6IEKVw
tYEEpJCj8INNDGsSXaRMg1r/qHqGYf8PTOUPF9FkPL3ZIn63+puDug==
-----END CERTIFICATE-----
